HI-TECH Software XC8 Compiler V1.00 ()

Linker command line:

--edf=C:\Program Files (x86)\Microchip\xc8\v1.00\dat\en_msgs.txt -cs \
  -h+dist/default/production\PR_9B___P.D.S_V2010.X.production.sym -z \
  -Q16F877A -ol.obj \
  -Mdist/default/production/PR_9B___P.D.S_V2010.X.production.map -E1 \
  -ver=XC8 -ACONST=00h-0FFhx32 -ACODE=00h-07FFhx4 -ASTRCODE=00h-01FFFh \
  -AENTRY=00h-0FFhx32 -ASTRING=00h-0FFhx32 -ACOMMON=070h-07Fh \
  -ABANK0=020h-06Fh -ABANK1=0A0h-0EFh -ABANK2=0110h-016Fh \
  -ABANK3=0190h-01EFh -ARAM=020h-06Fh,0A0h-0EFh,0110h-016Fh,0190h-01EFh \
  -AABS1=020h-07Fh,0A0h-0EFh,0110h-016Fh,0190h-01EFh -ASFR0=00h-01Fh \
  -ASFR1=080h-09Fh -ASFR2=0100h-010Fh -ASFR3=0180h-018Fh \
  -preset_vec=00h,intentry,init,end_init -ppowerup=CODE -pfunctab=CODE \
  -ACONFIG=02007h-02007h -pconfig=CONFIG -DCONFIG=2 -AIDLOC=02000h-02003h \
  -pidloc=IDLOC -DIDLOC=2 -AEEDATA=00h-0FFh/02100h -peeprom_data=EEDATA \
  -DEEDATA=2 -DCODE=2 -DSTRCODE=2 -DSTRING=2 -DCONST=2 -DENTRY=2 -k \
  C:\Users\HATAKE~1\AppData\Local\Temp\s1cpc.obj \
  dist/default/production\PR_9B___P.D.S_V2010.X.production.obj 

Object code version is 3.10

Machine type is 16F877A



                Name                               Link     Load   Length Selector   Space Scale
C:\Users\HATAKE~1\AppData\Local\Temp\s1cpc.obj
                end_init                              0        0        3        0       0
dist/default/production\PR_9B___P.D.S_V2010.X.production.obj
                config                             2007     2007        1     400E       0
                text401                             3B6      3B6       30      76C       0
                text400                             33F      33F       21      67E       0
                text399                             2F0      2F0       19      5E0       0
                text398                             3E6      3E6       34      7CC       0
                text397                             2C8      2C8       14      590       0
                text396                             309      309       19      612       0
                text395                             322      322       1D      644       0
                text394                             2DC      2DC       14      5B8       0
                text393                             41A      41A       BE      834       0
                text392                             2AC      2AC        7      558       0
                text391                             4D8      4D8       BE      9B0       0
                text390                             2B3      2B3        7      566       0
                text389                             596      596       BE      B2C       0
                text388                             2BA      2BA        7      574       0
                text387                             654      654       BE      CA8       0
                text386                             2C1      2C1        7      582       0
                text385                             360      360       27      6C0       0
                maintext                            712      712       EE      E24       0
                cstackCOMMON                         70       70        C       70       1
                dataBANK0                            26       26        6       20       1
                bssBANK0                             20       20        6       20       1
                bssCOMMON                            7C       7C        1       70       1
                cinit                               387      387       2F      70E       0
                strings                               3        3       34        6       0
                idataBANK0                          2A6      2A6        6      54C       0

TOTAL           Name                               Link     Load   Length     Space
        CLASS   CONST          

        CLASS   CODE           
                end_init                              0        0        3         0
                text401                             3B6      3B6       30         0
                text400                             33F      33F       21         0
                text399                             2F0      2F0       19         0
                text398                             3E6      3E6       34         0
                text397                             2C8      2C8       14         0
                text396                             309      309       19         0
                text395                             322      322       1D         0
                text394                             2DC      2DC       14         0
                text393                             41A      41A       BE         0
                text392                             2AC      2AC        7         0
                text391                             4D8      4D8       BE         0
                text390                             2B3      2B3        7         0
                text389                             596      596       BE         0
                text388                             2BA      2BA        7         0
                text387                             654      654       BE         0
                text386                             2C1      2C1        7         0
                text385                             360      360       27         0
                maintext                            712      712       EE         0
                cinit                               387      387       2F         0
                idataBANK0                          2A6      2A6        6         0

        CLASS   STRCODE        

        CLASS   ENTRY          

        CLASS   STRING         
                strings                               3        3       34         0

        CLASS   COMMON         
                cstackCOMMON                         70       70        C         1
                bssCOMMON                            7C       7C        1         1

        CLASS   BANK0          
                dataBANK0                            26       26        6         1
                bssBANK0                             20       20        6         1

        CLASS   BANK1          

        CLASS   BANK2          

        CLASS   BANK3          

        CLASS   RAM            

        CLASS   ABS1           
                abs_s1                               7E       7E        2         1

        CLASS   SFR0           

        CLASS   SFR1           

        CLASS   SFR2           

        CLASS   SFR3           

        CLASS   CONFIG         
                config                             2007     2007        1         0

        CLASS   IDLOC          

        CLASS   EEDATA         



SEGMENTS        Name                           Load    Length   Top    Selector   Space  Class     Delta

                reset_vec                      000000  000003  000003         0       0  CODE        2
                strings                        000003  000034  000037         6       0  STRING      2
                bssBANK0                       000020  00000C  00002C        20       1  BANK0       1
                cstackCOMMON                   000070  00000D  00007D        70       1  COMMON      1
                idataBANK0                     0002A6  000006  0002AC       54C       0  CODE        2
                text392                        0002AC  000007  0002B3       558       0  CODE        2
                text390                        0002B3  000007  0002BA       566       0  CODE        2
                text388                        0002BA  000007  0002C1       574       0  CODE        2
                text386                        0002C1  000007  0002C8       582       0  CODE        2
                text397                        0002C8  000014  0002DC       590       0  CODE        2
                text394                        0002DC  000014  0002F0       5B8       0  CODE        2
                text399                        0002F0  000019  000309       5E0       0  CODE        2
                text396                        000309  000019  000322       612       0  CODE        2
                text395                        000322  00001D  00033F       644       0  CODE        2
                text400                        00033F  000021  000360       67E       0  CODE        2
                text385                        000360  000027  000387       6C0       0  CODE        2
                cinit                          000387  00002F  0003B6       70E       0  CODE        2
                text401                        0003B6  000030  0003E6       76C       0  CODE        2
                text398                        0003E6  000034  00041A       7CC       0  CODE        2
                text393                        00041A  0000BE  0004D8       834       0  CODE        2
                text391                        0004D8  0000BE  000596       9B0       0  CODE        2
                text389                        000596  0000BE  000654       B2C       0  CODE        2
                text387                        000654  0000BE  000712       CA8       0  CODE        2
                maintext                       000712  0000EE  000800       E24       0  CODE        2
                config                         002007  000001  002008      400E       0  CONFIG      2


UNUSED ADDRESS RANGES

        Name                Unused          Largest block    Delta
        BANK0            002C-006F             44           1
        BANK1            00A0-00EF             50           1
        BANK2            0110-016F             60           1
        BANK3            0190-01EF             60           1
        CODE             0037-02A5            26F           2
                         0800-1FFF            800
        COMMON           007D-007D              1           1
        CONST            0037-02A5            100           2
                         0800-1FFF            100
        EEDATA           2100-21FF            100           2
        ENTRY            0037-02A5            100           2
                         0800-1FFF            100
        IDLOC            2000-2003              4           2
        RAM              002C-006F             44           1
                         00A0-00EF             50
                         0110-016F             60
                         0190-01EF             60
        SFR0             0000-001F             20           1
        SFR1             0080-009F             20           1
        SFR2             0100-010F             10           1
        SFR3             0180-018F             10           1
        STRCODE          0037-02A5            26F           2
                         0800-1FFF           1800
        STRING           0037-02A5            100           2
                         0800-1FFF            100

                                  Symbol Table

??_beep_once          cstackCOMMON 0078
??_beep_twice         cstackCOMMON 0078
??_clearrow1          cstackCOMMON 0070
??_clearrow2          cstackCOMMON 0070
??_clearrow3          cstackCOMMON 0070
??_clearrow4          cstackCOMMON 0070
??_delay              cstackCOMMON 0074
??_e_pulse            cstackCOMMON 0078
??_lcd_clr            cstackCOMMON 0079
??_lcd_goto           cstackCOMMON 0079
??_main               cstackCOMMON 007C
??_scancolumn1        cstackCOMMON 007B
??_scancolumn2        cstackCOMMON 007B
??_scancolumn3        cstackCOMMON 007B
??_scancolumn4        cstackCOMMON 007B
??_send_char          cstackCOMMON 0078
??_send_config        cstackCOMMON 0078
??_send_string        cstackCOMMON 0079
?_beep_once           cstackCOMMON 0070
?_beep_twice          cstackCOMMON 0070
?_clearrow1           cstackCOMMON 0070
?_clearrow2           cstackCOMMON 0070
?_clearrow3           cstackCOMMON 0070
?_clearrow4           cstackCOMMON 0070
?_delay               cstackCOMMON 0070
?_e_pulse             cstackCOMMON 0070
?_lcd_clr             cstackCOMMON 0070
?_lcd_goto            cstackCOMMON 0070
?_main                cstackCOMMON 0070
?_scancolumn1         cstackCOMMON 0070
?_scancolumn2         cstackCOMMON 0070
?_scancolumn3         cstackCOMMON 0070
?_scancolumn4         cstackCOMMON 0070
?_send_char           cstackCOMMON 0070
?_send_config         cstackCOMMON 0070
?_send_string         cstackCOMMON 0070
_ADCON1               (abs)        009F
_PORTC                (abs)        0007
_PORTD                (abs)        0008
_RA0                  (abs)        0028
_RA1                  (abs)        0029
_RA2                  (abs)        002A
_RA3                  (abs)        002B
_RA4                  (abs)        002C
_RA5                  (abs)        002D
_RB1                  (abs)        0031
_RB2                  (abs)        0032
_RC0                  (abs)        0038
_RC1                  (abs)        0039
_RC2                  (abs)        003A
_RC3                  (abs)        003B
_RE0                  (abs)        0048
_RE1                  (abs)        0049
_TRISA                (abs)        0085
_TRISB                (abs)        0086
_TRISC                (abs)        0087
_TRISD                (abs)        0088
_TRISE                (abs)        0089
__Habs1               abs1         0000
__Hbank0              bank0        0000
__Hbank1              bank1        0000
__Hbank2              bank2        0000
__Hbank3              bank3        0000
__HbssBANK0           bssBANK0     0000
__HbssCOMMON          bssCOMMON    0000
__Hcinit              cinit        0000
__Hclrtext            clrtext      0000
__Hcode               code         0000
__Hcommon             common       0000
__Hconfig             config       2008
__HcstackCOMMON       cstackCOMMON 0000
__HdataBANK0          dataBANK0    0000
__Heeprom_data        eeprom_data  0000
__Hend_init           end_init     0003
__Hfunctab            functab      0000
__HidataBANK0         idataBANK0   0000
__Hidloc              idloc        0000
__Hinit               init         0000
__Hintentry           intentry     0000
__Hmaintext           maintext     0000
__Hpowerup            powerup      0000
__Hram                ram          0000
__Hreset_vec          reset_vec    0000
__Hsfr0               sfr0         0000
__Hsfr1               sfr1         0000
__Hsfr2               sfr2         0000
__Hsfr3               sfr3         0000
__Hstrings            strings      0000
__Htext               text         0000
__Labs1               abs1         0000
__Lbank0              bank0        0000
__Lbank1              bank1        0000
__Lbank2              bank2        0000
__Lbank3              bank3        0000
__LbssBANK0           bssBANK0     0000
__LbssCOMMON          bssCOMMON    0000
__Lcinit              cinit        0000
__Lclrtext            clrtext      0000
__Lcode               code         0000
__Lcommon             common       0000
__Lconfig             config       2007
__LcstackCOMMON       cstackCOMMON 0000
__LdataBANK0          dataBANK0    0000
__Leeprom_data        eeprom_data  0000
__Lend_init           end_init     0000
__Lfunctab            functab      0000
__LidataBANK0         idataBANK0   0000
__Lidloc              idloc        0000
__Linit               init         0000
__Lintentry           intentry     0000
__Lmaintext           maintext     0000
__Lpowerup            powerup      0000
__Lram                ram          0000
__Lreset_vec          reset_vec    0000
__Lsfr0               sfr0         0000
__Lsfr1               sfr1         0000
__Lsfr2               sfr2         0000
__Lsfr3               sfr3         0000
__Lstrings            strings      0000
__Ltext               text         0000
__S0                  (abs)        2008
__S1                  (abs)        007D
__S2                  (abs)        0000
__end_of_beep_once    text397      02DC
__end_of_beep_twice   text398      041A
__end_of_clearrow1    text386      02C8
__end_of_clearrow2    text388      02C1
__end_of_clearrow3    text390      02BA
__end_of_clearrow4    text392      02B3
__end_of_delay        text401      03E6
__end_of_e_pulse      text400      0360
__end_of_lcd_clr      text394      02F0
__end_of_lcd_goto     text395      033F
__end_of_main         maintext     0800
__end_of_scancolumn1  text387      0712
__end_of_scancolumn2  text389      0654
__end_of_scancolumn3  text391      0596
__end_of_scancolumn4  text393      04D8
__end_of_send_char    text399      0309
__end_of_send_config  text396      0322
__end_of_send_string  text385      0387
__pbssBANK0           bssBANK0     0020
__pbssCOMMON          bssCOMMON    007C
__pcstackCOMMON       cstackCOMMON 0070
__pdataBANK0          dataBANK0    0026
__pidataBANK0         idataBANK0   02A6
__pmaintext           maintext     0712
__pstrings            strings      0003
__ptext385            text385      0360
__ptext386            text386      02C1
__ptext387            text387      0654
__ptext388            text388      02BA
__ptext389            text389      0596
__ptext390            text390      02B3
__ptext391            text391      04D8
__ptext392            text392      02AC
__ptext393            text393      041A
__ptext394            text394      02DC
__ptext395            text395      0322
__ptext396            text396      0309
__ptext397            text397      02C8
__ptext398            text398      03E6
__ptext399            text399      02F0
__ptext400            text400      033F
__ptext401            text401      03B6
__ptext402            text402      0000
__size_of_beep_once   (abs)        0000
__size_of_beep_twice  (abs)        0000
__size_of_clearrow1   (abs)        0000
__size_of_clearrow2   (abs)        0000
__size_of_clearrow3   (abs)        0000
__size_of_clearrow4   (abs)        0000
__size_of_delay       (abs)        0000
__size_of_e_pulse     (abs)        0000
__size_of_lcd_clr     (abs)        0000
__size_of_lcd_goto    (abs)        0000
__size_of_main        (abs)        0000
__size_of_scancolumn1 (abs)        0000
__size_of_scancolumn2 (abs)        0000
__size_of_scancolumn3 (abs)        0000
__size_of_scancolumn4 (abs)        0000
__size_of_send_char   (abs)        0000
__size_of_send_config (abs)        0000
__size_of_send_string (abs)        0000
_beep_once            text397      02C8
_beep_twice           text398      03E6
_clearrow1            text386      02C1
_clearrow2            text388      02BA
_clearrow3            text390      02B3
_clearrow4            text392      02AC
_delay                text401      03B6
_e_pulse              text400      033F
_keyin_char           bssBANK0     0020
_lcd_clr              text394      02DC
_lcd_goto             text395      0322
_main                 maintext     0712
_password_count       bssCOMMON    007C
_scancolumn1          text387      0654
_scancolumn2          text389      0596
_scancolumn3          text391      04D8
_scancolumn4          text393      041A
_send_char            text399      02F0
_send_config          text396      0309
_send_string          text385      0360
_stalled_char         dataBANK0    0026
btemp                 (abs)        007E
delay@data            cstackCOMMON 0070
end_of_initialization cinit        03B2
intlevel0             functab      0000
intlevel1             functab      0000
intlevel2             functab      0000
intlevel3             functab      0000
intlevel4             functab      0000
intlevel5             functab      0000
lcd_goto@data         cstackCOMMON 007A
reset_vec             reset_vec    0000
send_char@data        cstackCOMMON 0078
send_config@data      cstackCOMMON 0078
send_string@i         cstackCOMMON 007A
send_string@s         cstackCOMMON 007B
start                 init         0000
start_initialization  cinit        0387
wtemp0                (abs)        007E
