

HI-TECH Software PIC LITE Macro Assembler V9.82 build 9453 
                                                                                               Thu Jul 09 16:49:06 2015

HI-TECH Software Omniscient Code Generator (Lite mode) build 9453
     1  0000                     opt subtitle "HI-TECH Software Omniscient Code Generator (Lite mode) build 9453"
     2                           
     3                           opt pagewidth 120
     4                           
     5                           	opt lm
     6                           
     7                           	processor	16F877A
     8                           clrc	macro
     9                           	bcf	3,0
    10  0000                     	endm
    11                           clrz	macro
    12                           	bcf	3,2
    13  0000                     	endm
    14                           setc	macro
    15                           	bsf	3,0
    16  0000                     	endm
    17                           setz	macro
    18                           	bsf	3,2
    19  0000                     	endm
    20                           skipc	macro
    21                           	btfss	3,0
    22  0000                     	endm
    23                           skipz	macro
    24                           	btfss	3,2
    25  0000                     	endm
    26                           skipnc	macro
    27                           	btfsc	3,0
    28  0000                     	endm
    29                           skipnz	macro
    30                           	btfsc	3,2
    31  0000                     	endm
    32  0000                     indf	equ	0
    33  0000                     indf0	equ	0
    34  0002                     pc	equ	2
    35  0002                     pcl	equ	2
    36  0003                     status	equ	3
    37  0004                     fsr	equ	4
    38  0004                     fsr0	equ	4
    39  0001                     c	equ	1
    40  0000                     z	equ	0
    41  000A                     pclath	equ	10
    42                           # 34 "../../Source File/PR9B.c"
    43                           	psect config,class=CONFIG,delta=2 ;#
    44                           # 34 "../../Source File/PR9B.c"
    45  2007  3F32               	dw 0x3F32 ;#
    46                           	FNCALL	_main,_send_config
    47                           	FNCALL	_main,_lcd_clr
    48                           	FNCALL	_main,_delay
    49                           	FNCALL	_main,_lcd_goto
    50                           	FNCALL	_main,_send_string
    51                           	FNCALL	_main,_clearrow1
    52                           	FNCALL	_main,_scancolumn1
    53                           	FNCALL	_main,_clearrow2
    54                           	FNCALL	_main,_scancolumn2
    55                           	FNCALL	_main,_clearrow3
    56                           	FNCALL	_main,_scancolumn3
    57                           	FNCALL	_main,_clearrow4
    58                           	FNCALL	_main,_scancolumn4
    59                           	FNCALL	_main,_beep_once
    60                           	FNCALL	_main,_beep_twice
    61                           	FNCALL	_scancolumn4,_lcd_clr
    62                           	FNCALL	_scancolumn4,_lcd_goto
    63                           	FNCALL	_scancolumn4,_send_char
    64                           	FNCALL	_scancolumn3,_lcd_clr
    65                           	FNCALL	_scancolumn3,_lcd_goto
    66                           	FNCALL	_scancolumn3,_send_char
    67                           	FNCALL	_scancolumn2,_lcd_clr
    68                           	FNCALL	_scancolumn2,_lcd_goto
    69                           	FNCALL	_scancolumn2,_send_char
    70                           	FNCALL	_scancolumn1,_lcd_clr
    71                           	FNCALL	_scancolumn1,_lcd_goto
    72                           	FNCALL	_scancolumn1,_send_char
    73                           	FNCALL	_send_string,_send_char
    74                           	FNCALL	_lcd_goto,_send_config
    75                           	FNCALL	_lcd_clr,_send_config
    76                           	FNCALL	_lcd_clr,_delay
    77                           	FNCALL	_send_char,_delay
    78                           	FNCALL	_send_char,_e_pulse
    79                           	FNCALL	_send_config,_delay
    80                           	FNCALL	_send_config,_e_pulse
    81                           	FNCALL	_e_pulse,_delay
    82                           	FNCALL	_beep_twice,_delay
    83                           	FNCALL	_beep_once,_delay
    84                           	FNROOT	_main
    85                           	global	_stalled_char
    86                           psect	idataBANK0,class=CODE,space=0,delta=2
    87                           global __pidataBANK0
    88  02A4                     __pidataBANK0:
    89                           	file	"../../Source File/PR9B.c"
    90                           	line	75
    91                           
    92                           ;initializer for _stalled_char
    93  02A4  3431               	retlw	031h
    94  02A5  3432               	retlw	032h
    95  02A6  3433               	retlw	033h
    96  02A7  3434               	retlw	034h
    97  02A8  3435               	retlw	035h
    98  02A9  3436               	retlw	036h
    99                           	global	_keyin_char
   100                           	global	_password_count
   101                           	global	_PORTC
   102  0007                     _PORTC	set	7
   103                           	global	_PORTD
   104  0008                     _PORTD	set	8
   105                           	global	_CARRY
   106  0018                     _CARRY	set	24
   107                           	global	_GIE
   108  005F                     _GIE	set	95
   109                           	global	_RA0
   110  0028                     _RA0	set	40
   111                           	global	_RA1
   112  0029                     _RA1	set	41
   113                           	global	_RA2
   114  002A                     _RA2	set	42
   115                           	global	_RA3
   116  002B                     _RA3	set	43
   117                           	global	_RA4
   118  002C                     _RA4	set	44
   119                           	global	_RA5
   120  002D                     _RA5	set	45
   121                           	global	_RB1
   122  0031                     _RB1	set	49
   123                           	global	_RB2
   124  0032                     _RB2	set	50
   125                           	global	_RC0
   126  0038                     _RC0	set	56
   127                           	global	_RC1
   128  0039                     _RC1	set	57
   129                           	global	_RC2
   130  003A                     _RC2	set	58
   131                           	global	_RC3
   132  003B                     _RC3	set	59
   133                           	global	_RE0
   134  0048                     _RE0	set	72
   135                           	global	_RE1
   136  0049                     _RE1	set	73
   137                           	global	_ADCON1
   138  009F                     _ADCON1	set	159
   139                           	global	_TRISA
   140  0085                     _TRISA	set	133
   141                           	global	_TRISB
   142  0086                     _TRISB	set	134
   143                           	global	_TRISC
   144  0087                     _TRISC	set	135
   145                           	global	_TRISD
   146  0088                     _TRISD	set	136
   147                           	global	_TRISE
   148  0089                     _TRISE	set	137
   149                           	global	_EEADR
   150  010D                     _EEADR	set	269
   151                           	global	_EEDATA
   152  010C                     _EEDATA	set	268
   153                           	global	_EECON1
   154  018C                     _EECON1	set	396
   155                           	global	_EECON2
   156  018D                     _EECON2	set	397
   157                           	global	_RD
   158  0C60                     _RD	set	3168
   159                           	global	_WR
   160  0C61                     _WR	set	3169
   161                           	global	_WREN
   162  0C62                     _WREN	set	3170
   163                           psect	strings,class=STRING,delta=2
   164                           global __pstrings
   165  0003                     __pstrings:
   166                           ;	global	stringdir,stringtab,__stringbase
   167  0003                     stringtab:
   168                           ;	String table - string pointers are 1 byte each
   169  0003                     stringcode:stringdir:
      + 0003                     stringdir:	
   170  0003  3000               movlw high(stringdir)
   171  0004  008A               movwf pclath
   172  0005  0804               movf fsr,w
   173  0006  0A84               incf fsr
   174  0007  0782               	addwf pc
   175  0008                     __stringbase:
   176  0008  3400               	retlw	0
   177                           psect	strings
   178                           	
   179  0009                     STR_2:	
   180  0009  3436               	retlw	54	;'6'
   181  000A  342D               	retlw	45	;'-'
   182  000B  3444               	retlw	68	;'D'
   183  000C  3449               	retlw	73	;'I'
   184  000D  3447               	retlw	71	;'G'
   185  000E  3449               	retlw	73	;'I'
   186  000F  3454               	retlw	84	;'T'
   187  0010  3420               	retlw	32	;' '
   188  0011  3450               	retlw	80	;'P'
   189  0012  3441               	retlw	65	;'A'
   190  0013  3453               	retlw	83	;'S'
   191  0014  3453               	retlw	83	;'S'
   192  0015  3457               	retlw	87	;'W'
   193  0016  344F               	retlw	79	;'O'
   194  0017  3452               	retlw	82	;'R'
   195  0018  3444               	retlw	68	;'D'
   196  0019  3400               	retlw	0
   197                           psect	strings
   198                           	
   199  001A                     STR_1:	
   200  001A  3450               	retlw	80	;'P'
   201  001B  344C               	retlw	76	;'L'
   202  001C  3445               	retlw	69	;'E'
   203  001D  3441               	retlw	65	;'A'
   204  001E  3453               	retlw	83	;'S'
   205  001F  3445               	retlw	69	;'E'
   206  0020  3420               	retlw	32	;' '
   207  0021  3445               	retlw	69	;'E'
   208  0022  344E               	retlw	78	;'N'
   209  0023  3454               	retlw	84	;'T'
   210  0024  3445               	retlw	69	;'E'
   211  0025  3452               	retlw	82	;'R'
   212  0026  3400               	retlw	0
   213                           psect	strings
   214                           	
   215  0027                     STR_3:	
   216  0027  3453               	retlw	83	;'S'
   217  0028  3455               	retlw	85	;'U'
   218  0029  3443               	retlw	67	;'C'
   219  002A  3443               	retlw	67	;'C'
   220  002B  3445               	retlw	69	;'E'
   221  002C  3453               	retlw	83	;'S'
   222  002D  3453               	retlw	83	;'S'
   223  002E  3421               	retlw	33	;'!'
   224  002F  3400               	retlw	0
   225                           psect	strings
   226                           	
   227  0030                     STR_4:	
   228  0030  3445               	retlw	69	;'E'
   229  0031  3452               	retlw	82	;'R'
   230  0032  3452               	retlw	82	;'R'
   231  0033  344F               	retlw	79	;'O'
   232  0034  3452               	retlw	82	;'R'
   233  0035  3421               	retlw	33	;'!'
   234  0036  3400               	retlw	0
   235                           psect	strings
   236                           	file	"C:\Users\TRAINE~1\AppData\Local\Temp\s3vc."
   237                           	line	#
   238                           psect cinit,class=CODE,delta=2
   239                           global start_initialization
   240  0385                     start_initialization:
   241                           
   242                           psect	bssCOMMON,class=COMMON,space=1
   243                           global __pbssCOMMON
   244  007C                     __pbssCOMMON:
   245  007C                     _password_count:
   246  007C                            ds      1
   247                           
   248                           psect	bssBANK0,class=BANK0,space=1
   249                           global __pbssBANK0
   250  0020                     __pbssBANK0:
   251  0020                     _keyin_char:
   252  0020                            ds      6
   253                           
   254                           psect	dataBANK0,class=BANK0,space=1
   255                           global __pdataBANK0
   256  0026                     __pdataBANK0:
   257                           	file	"../../Source File/PR9B.c"
   258  0026                     _stalled_char:
   259  0026                            ds      6
   260                           
   261                           ; Clear objects allocated to COMMON
   262                           psect cinit,class=CODE,delta=2
   263  0385  01FC               	clrf	((__pbssCOMMON)+0)&07Fh
   264                           ; Clear objects allocated to BANK0
   265                           psect cinit,class=CODE,delta=2
   266  0386  01A0               	clrf	((__pbssBANK0)+0)&07Fh
   267  0387  01A1               	clrf	((__pbssBANK0)+1)&07Fh
   268  0388  01A2               	clrf	((__pbssBANK0)+2)&07Fh
   269  0389  01A3               	clrf	((__pbssBANK0)+3)&07Fh
   270  038A  01A4               	clrf	((__pbssBANK0)+4)&07Fh
   271  038B  01A5               	clrf	((__pbssBANK0)+5)&07Fh
   272                           ; Initialize objects allocated to BANK0
   273                           	global __pidataBANK0
   274                           psect cinit,class=CODE,delta=2
   275  038C  120A  118A  22A4   	fcall	__pidataBANK0+0		;fetch initializer
              120A  118A         
   276  0391  00A6               	movwf	__pdataBANK0+0&07fh		
   277  0392  120A  118A  22A5   	fcall	__pidataBANK0+1		;fetch initializer
              120A  118A         
   278  0397  00A7               	movwf	__pdataBANK0+1&07fh		
   279  0398  120A  118A  22A6   	fcall	__pidataBANK0+2		;fetch initializer
              120A  118A         
   280  039D  00A8               	movwf	__pdataBANK0+2&07fh		
   281  039E  120A  118A  22A7   	fcall	__pidataBANK0+3		;fetch initializer
              120A  118A         
   282  03A3  00A9               	movwf	__pdataBANK0+3&07fh		
   283  03A4  120A  118A  22A8   	fcall	__pidataBANK0+4		;fetch initializer
              120A  118A         
   284  03A9  00AA               	movwf	__pdataBANK0+4&07fh		
   285  03AA  120A  118A  22A9   	fcall	__pidataBANK0+5		;fetch initializer
              120A  118A         
   286  03AF  00AB               	movwf	__pdataBANK0+5&07fh		
   287                           psect cinit,class=CODE,delta=2
   288                           global end_of_initialization
   289                           
   290                           ;End of C runtime variable initialization code
   291                           
   292  03B0                     end_of_initialization:
   293  03B0  0183               clrf status
   294  03B1  120A  118A  2F10   ljmp _main	;jump to C main() function
   295                           psect	cstackCOMMON,class=COMMON,space=1
   296                           global __pcstackCOMMON
   297  0070                     __pcstackCOMMON:
   298                           	global	?_send_config
   299  0070                     ?_send_config:	; 0 bytes @ 0x0
   300                           	global	?_lcd_clr
   301  0070                     ?_lcd_clr:	; 0 bytes @ 0x0
   302                           	global	?_delay
   303  0070                     ?_delay:	; 0 bytes @ 0x0
   304                           	global	?_lcd_goto
   305  0070                     ?_lcd_goto:	; 0 bytes @ 0x0
   306                           	global	?_send_string
   307  0070                     ?_send_string:	; 0 bytes @ 0x0
   308                           	global	?_clearrow1
   309  0070                     ?_clearrow1:	; 0 bytes @ 0x0
   310                           	global	??_clearrow1
   311  0070                     ??_clearrow1:	; 0 bytes @ 0x0
   312                           	global	?_scancolumn1
   313  0070                     ?_scancolumn1:	; 0 bytes @ 0x0
   314                           	global	?_clearrow2
   315  0070                     ?_clearrow2:	; 0 bytes @ 0x0
   316                           	global	??_clearrow2
   317  0070                     ??_clearrow2:	; 0 bytes @ 0x0
   318                           	global	?_scancolumn2
   319  0070                     ?_scancolumn2:	; 0 bytes @ 0x0
   320                           	global	?_clearrow3
   321  0070                     ?_clearrow3:	; 0 bytes @ 0x0
   322                           	global	??_clearrow3
   323  0070                     ??_clearrow3:	; 0 bytes @ 0x0
   324                           	global	?_scancolumn3
   325  0070                     ?_scancolumn3:	; 0 bytes @ 0x0
   326                           	global	?_clearrow4
   327  0070                     ?_clearrow4:	; 0 bytes @ 0x0
   328                           	global	??_clearrow4
   329  0070                     ??_clearrow4:	; 0 bytes @ 0x0
   330                           	global	?_scancolumn4
   331  0070                     ?_scancolumn4:	; 0 bytes @ 0x0
   332                           	global	?_beep_once
   333  0070                     ?_beep_once:	; 0 bytes @ 0x0
   334                           	global	?_beep_twice
   335  0070                     ?_beep_twice:	; 0 bytes @ 0x0
   336                           	global	?_send_char
   337  0070                     ?_send_char:	; 0 bytes @ 0x0
   338                           	global	?_e_pulse
   339  0070                     ?_e_pulse:	; 0 bytes @ 0x0
   340                           	global	?_main
   341  0070                     ?_main:	; 0 bytes @ 0x0
   342                           	global	delay@data
   343  0070                     delay@data:	; 4 bytes @ 0x0
   344  0070                     	ds	4
   345                           	global	??_delay
   346  0074                     ??_delay:	; 0 bytes @ 0x4
   347  0074                     	ds	4
   348                           	global	??_send_config
   349  0078                     ??_send_config:	; 0 bytes @ 0x8
   350                           	global	??_beep_once
   351  0078                     ??_beep_once:	; 0 bytes @ 0x8
   352                           	global	??_beep_twice
   353  0078                     ??_beep_twice:	; 0 bytes @ 0x8
   354                           	global	??_send_char
   355  0078                     ??_send_char:	; 0 bytes @ 0x8
   356                           	global	??_e_pulse
   357  0078                     ??_e_pulse:	; 0 bytes @ 0x8
   358                           	global	send_config@data
   359  0078                     send_config@data:	; 1 bytes @ 0x8
   360                           	global	send_char@data
   361  0078                     send_char@data:	; 1 bytes @ 0x8
   362  0078                     	ds	1
   363                           	global	??_lcd_clr
   364  0079                     ??_lcd_clr:	; 0 bytes @ 0x9
   365                           	global	??_lcd_goto
   366  0079                     ??_lcd_goto:	; 0 bytes @ 0x9
   367                           	global	??_send_string
   368  0079                     ??_send_string:	; 0 bytes @ 0x9
   369  0079                     	ds	1
   370                           	global	lcd_goto@data
   371  007A                     lcd_goto@data:	; 1 bytes @ 0xA
   372                           	global	send_string@i
   373  007A                     send_string@i:	; 1 bytes @ 0xA
   374  007A                     	ds	1
   375                           	global	??_scancolumn1
   376  007B                     ??_scancolumn1:	; 0 bytes @ 0xB
   377                           	global	??_scancolumn2
   378  007B                     ??_scancolumn2:	; 0 bytes @ 0xB
   379                           	global	??_scancolumn3
   380  007B                     ??_scancolumn3:	; 0 bytes @ 0xB
   381                           	global	??_scancolumn4
   382  007B                     ??_scancolumn4:	; 0 bytes @ 0xB
   383                           	global	send_string@s
   384  007B                     send_string@s:	; 1 bytes @ 0xB
   385  007B                     	ds	1
   386                           	global	??_main
   387  007C                     ??_main:	; 0 bytes @ 0xC
   388 ;;Data sizes: Strings 46, constant 0, data 6, bss 7, persistent 0 stack 0
   389 ;;Auto spaces:   Size  Autos    Used
   390 ;; COMMON          14     12      13
   391 ;; BANK0           80      0      12
   392 ;; BANK1           80      0       0
   393 ;; BANK3           96      0       0
   394 ;; BANK2           96      0       0
   395                           
   396 ;;
   397 ;; Pointer list with targets:
   398                           
   399 ;; send_string@s	PTR const unsigned char  size(1) Largest target is 17
   400 ;;		 -> STR_4(CODE[7]), STR_3(CODE[9]), STR_2(CODE[17]), STR_1(CODE[13]), 
   401 ;;
   402                           
   403                           
   404 ;;
   405 ;; Critical Paths under _main in COMMON
   406 ;;
   407 ;;   _main->_send_string
   408 ;;   _main->_scancolumn1
   409 ;;   _main->_scancolumn2
   410 ;;   _main->_scancolumn3
   411 ;;   _main->_scancolumn4
   412 ;;   _scancolumn4->_lcd_goto
   413 ;;   _scancolumn3->_lcd_goto
   414 ;;   _scancolumn2->_lcd_goto
   415 ;;   _scancolumn1->_lcd_goto
   416 ;;   _send_string->_send_char
   417 ;;   _lcd_goto->_send_config
   418 ;;   _lcd_clr->_send_config
   419 ;;   _send_char->_delay
   420 ;;   _send_config->_delay
   421 ;;   _e_pulse->_delay
   422 ;;   _beep_twice->_delay
   423 ;;   _beep_once->_delay
   424 ;;
   425 ;; Critical Paths under _main in BANK0
   426 ;;
   427 ;;   None.
   428 ;;
   429 ;; Critical Paths under _main in BANK1
   430 ;;
   431 ;;   None.
   432 ;;
   433 ;; Critical Paths under _main in BANK3
   434 ;;
   435 ;;   None.
   436 ;;
   437 ;; Critical Paths under _main in BANK2
   438 ;;
   439 ;;   None.
   440                           
   441 ;;
   442 ;;Main: autosize = 0, tempsize = 0, incstack = 0, save=0
   443 ;;
   444                           
   445 ;;
   446 ;;Call Graph Tables:
   447 ;;
   448 ;; ---------------------------------------------------------------------------------
   449 ;; (Depth) Function   	        Calls       Base Space   Used Autos Params    Refs
   450 ;; ---------------------------------------------------------------------------------
   451 ;; (0) _main                                                 0     0      0    2665
   452 ;;                        _send_config
   453 ;;                            _lcd_clr
   454 ;;                              _delay
   455 ;;                           _lcd_goto
   456 ;;                        _send_string
   457 ;;                          _clearrow1
   458 ;;                        _scancolumn1
   459 ;;                          _clearrow2
   460 ;;                        _scancolumn2
   461 ;;                          _clearrow3
   462 ;;                        _scancolumn3
   463 ;;                          _clearrow4
   464 ;;                        _scancolumn4
   465 ;;                          _beep_once
   466 ;;                         _beep_twice
   467 ;; ---------------------------------------------------------------------------------
   468 ;; (1) _scancolumn4                                          1     1      0     470
   469 ;;                                             11 COMMON     1     1      0
   470 ;;                            _lcd_clr
   471 ;;                           _lcd_goto
   472 ;;                          _send_char
   473 ;; ---------------------------------------------------------------------------------
   474 ;; (1) _scancolumn3                                          1     1      0     470
   475 ;;                                             11 COMMON     1     1      0
   476 ;;                            _lcd_clr
   477 ;;                           _lcd_goto
   478 ;;                          _send_char
   479 ;; ---------------------------------------------------------------------------------
   480 ;; (1) _scancolumn2                                          1     1      0     470
   481 ;;                                             11 COMMON     1     1      0
   482 ;;                            _lcd_clr
   483 ;;                           _lcd_goto
   484 ;;                          _send_char
   485 ;; ---------------------------------------------------------------------------------
   486 ;; (1) _scancolumn1                                          1     1      0     470
   487 ;;                                             11 COMMON     1     1      0
   488 ;;                            _lcd_clr
   489 ;;                           _lcd_goto
   490 ;;                          _send_char
   491 ;; ---------------------------------------------------------------------------------
   492 ;; (1) _send_string                                          3     3      0     180
   493 ;;                                              9 COMMON     3     3      0
   494 ;;                          _send_char
   495 ;; ---------------------------------------------------------------------------------
   496 ;; (2) _lcd_goto                                             2     2      0     201
   497 ;;                                              9 COMMON     2     2      0
   498 ;;                        _send_config
   499 ;; ---------------------------------------------------------------------------------
   500 ;; (2) _lcd_clr                                              0     0      0     157
   501 ;;                        _send_config
   502 ;;                              _delay
   503 ;; ---------------------------------------------------------------------------------
   504 ;; (2) _send_char                                            1     1      0     112
   505 ;;                                              8 COMMON     1     1      0
   506 ;;                              _delay
   507 ;;                            _e_pulse
   508 ;; ---------------------------------------------------------------------------------
   509 ;; (3) _send_config                                          1     1      0     112
   510 ;;                                              8 COMMON     1     1      0
   511 ;;                              _delay
   512 ;;                            _e_pulse
   513 ;; ---------------------------------------------------------------------------------
   514 ;; (3) _e_pulse                                              0     0      0      45
   515 ;;                              _delay
   516 ;; ---------------------------------------------------------------------------------
   517 ;; (1) _beep_twice                                           0     0      0      45
   518 ;;                              _delay
   519 ;; ---------------------------------------------------------------------------------
   520 ;; (1) _beep_once                                            0     0      0      45
   521 ;;                              _delay
   522 ;; ---------------------------------------------------------------------------------
   523 ;; (1) _clearrow4                                            0     0      0       0
   524 ;; ---------------------------------------------------------------------------------
   525 ;; (1) _clearrow3                                            0     0      0       0
   526 ;; ---------------------------------------------------------------------------------
   527 ;; (1) _clearrow2                                            0     0      0       0
   528 ;; ---------------------------------------------------------------------------------
   529 ;; (1) _clearrow1                                            0     0      0       0
   530 ;; ---------------------------------------------------------------------------------
   531 ;; (2) _delay                                                8     4      4      45
   532 ;;                                              0 COMMON     8     4      4
   533 ;; ---------------------------------------------------------------------------------
   534 ;; Estimated maximum stack depth 3
   535 ;; ---------------------------------------------------------------------------------
   536                           
   537 ;; Call Graph Graphs:
   538                           
   539 ;; _main (ROOT)
   540 ;;   _send_config
   541 ;;     _delay
   542 ;;     _e_pulse
   543 ;;       _delay
   544 ;;   _lcd_clr
   545 ;;     _send_config
   546 ;;       _delay
   547 ;;       _e_pulse
   548 ;;         _delay
   549 ;;     _delay
   550 ;;   _delay
   551 ;;   _lcd_goto
   552 ;;     _send_config
   553 ;;       _delay
   554 ;;       _e_pulse
   555 ;;         _delay
   556 ;;   _send_string
   557 ;;     _send_char
   558 ;;       _delay
   559 ;;       _e_pulse
   560 ;;         _delay
   561 ;;   _clearrow1
   562 ;;   _scancolumn1
   563 ;;     _lcd_clr
   564 ;;       _send_config
   565 ;;         _delay
   566 ;;         _e_pulse
   567 ;;           _delay
   568 ;;       _delay
   569 ;;     _lcd_goto
   570 ;;       _send_config
   571 ;;         _delay
   572 ;;         _e_pulse
   573 ;;           _delay
   574 ;;     _send_char
   575 ;;       _delay
   576 ;;       _e_pulse
   577 ;;         _delay
   578 ;;   _clearrow2
   579 ;;   _scancolumn2
   580 ;;     _lcd_clr
   581 ;;       _send_config
   582 ;;         _delay
   583 ;;         _e_pulse
   584 ;;           _delay
   585 ;;       _delay
   586 ;;     _lcd_goto
   587 ;;       _send_config
   588 ;;         _delay
   589 ;;         _e_pulse
   590 ;;           _delay
   591 ;;     _send_char
   592 ;;       _delay
   593 ;;       _e_pulse
   594 ;;         _delay
   595 ;;   _clearrow3
   596 ;;   _scancolumn3
   597 ;;     _lcd_clr
   598 ;;       _send_config
   599 ;;         _delay
   600 ;;         _e_pulse
   601 ;;           _delay
   602 ;;       _delay
   603 ;;     _lcd_goto
   604 ;;       _send_config
   605 ;;         _delay
   606 ;;         _e_pulse
   607 ;;           _delay
   608 ;;     _send_char
   609 ;;       _delay
   610 ;;       _e_pulse
   611 ;;         _delay
   612 ;;   _clearrow4
   613 ;;   _scancolumn4
   614 ;;     _lcd_clr
   615 ;;       _send_config
   616 ;;         _delay
   617 ;;         _e_pulse
   618 ;;           _delay
   619 ;;       _delay
   620 ;;     _lcd_goto
   621 ;;       _send_config
   622 ;;         _delay
   623 ;;         _e_pulse
   624 ;;           _delay
   625 ;;     _send_char
   626 ;;       _delay
   627 ;;       _e_pulse
   628 ;;         _delay
   629 ;;   _beep_once
   630 ;;     _delay
   631 ;;   _beep_twice
   632 ;;     _delay
   633 ;;
   634                           
   635 ;; Address spaces:
   636                           
   637 ;;Name               Size   Autos  Total    Cost      Usage
   638 ;;BANK3               60      0       0       9        0.0%
   639 ;;BITBANK3            60      0       0       8        0.0%
   640 ;;SFR3                 0      0       0       4        0.0%
   641 ;;BITSFR3              0      0       0       4        0.0%
   642 ;;BANK2               60      0       0      11        0.0%
   643 ;;BITBANK2            60      0       0      10        0.0%
   644 ;;SFR2                 0      0       0       5        0.0%
   645 ;;BITSFR2              0      0       0       5        0.0%
   646 ;;SFR1                 0      0       0       2        0.0%
   647 ;;BITSFR1              0      0       0       2        0.0%
   648 ;;BANK1               50      0       0       7        0.0%
   649 ;;BITBANK1            50      0       0       6        0.0%
   650 ;;CODE                 0      0       0       0        0.0%
   651 ;;DATA                 0      0      1E      12        0.0%
   652 ;;ABS                  0      0      19       3        0.0%
   653 ;;NULL                 0      0       0       0        0.0%
   654 ;;STACK                0      0       5       2        0.0%
   655 ;;BANK0               50      0       C       5       15.0%
   656 ;;BITBANK0            50      0       0       4        0.0%
   657 ;;SFR0                 0      0       0       1        0.0%
   658 ;;BITSFR0              0      0       0       1        0.0%
   659 ;;COMMON               E      C       D       1       92.9%
   660 ;;BITCOMMON            E      0       0       0        0.0%
   661 ;;EEDATA             100      0       0       0        0.0%
   662                           
   663                           	global	_main
   664                           psect	maintext,global,class=CODE,delta=2
   665                           global __pmaintext
   666  0710                     __pmaintext:
   667                           
   668 ;; *************** function _main *****************
   669 ;; Defined at:
   670 ;;		line 81 in file "../../Source File/PR9B.c"
   671 ;; Parameters:    Size  Location     Type
   672 ;;		None
   673 ;; Auto vars:     Size  Location     Type
   674 ;;		None
   675 ;; Return value:  Size  Location     Type
   676 ;;		None               void
   677 ;; Registers used:
   678 ;;		wreg, fsr0l, fsr0h, status,2, status,0, pclath, cstack
   679 ;; Tracked objects:
   680 ;;		On entry : 17F/0
   681 ;;		On exit  : 0/0
   682 ;;		Unchanged: 0/0
   683 ;; Data sizes:     COMMON   BANK0   BANK1   BANK3   BANK2
   684 ;;      Params:         0       0       0       0       0
   685 ;;      Locals:         0       0       0       0       0
   686 ;;      Temps:          0       0       0       0       0
   687 ;;      Totals:         0       0       0       0       0
   688 ;;Total ram usage:        0 bytes
   689 ;; Hardware stack levels required when called:    5
   690 ;; This function calls:
   691 ;;		_send_config
   692 ;;		_lcd_clr
   693 ;;		_delay
   694 ;;		_lcd_goto
   695 ;;		_send_string
   696 ;;		_clearrow1
   697 ;;		_scancolumn1
   698 ;;		_clearrow2
   699 ;;		_scancolumn2
   700 ;;		_clearrow3
   701 ;;		_scancolumn3
   702 ;;		_clearrow4
   703 ;;		_scancolumn4
   704 ;;		_beep_once
   705 ;;		_beep_twice
   706 ;; This function is called by:
   707 ;;		Startup code after reset
   708 ;; This function uses a non-reentrant model
   709 ;;
   710                           psect	maintext
   711                           	file	"../../Source File/PR9B.c"
   712                           	line	81
   713                           	global	__size_of_main
   714  00F0                     	__size_of_main	equ	__end_of_main-_main
   715                           	
   716  0710                     _main:	
   717                           	opt	stack 3
   718                           ; Regs used in _main: [wreg-fsr0h+status,2+status,0+pclath+cstack]
   719                           	line	82
   720                           	
   721  0710                     l3366:	
   722                           ;PR9B.c: 82: ADCON1=0b00000110;
   723  0710  3006               	movlw	(06h)
   724  0711  1683               	bsf	status, 5	;RP0=1, select bank1
   725  0712  1303               	bcf	status, 6	;RP1=0, select bank1
   726  0713  009F               	movwf	(159)^080h	;volatile
   727                           	line	83
   728                           ;PR9B.c: 83: TRISA=0b11001111;
   729  0714  30CF               	movlw	(0CFh)
   730  0715  0085               	movwf	(133)^080h	;volatile
   731                           	line	84
   732                           	
   733  0716                     l3368:	
   734                           ;PR9B.c: 84: TRISB=0b00000000;
   735  0716  0186               	clrf	(134)^080h	;volatile
   736                           	line	85
   737                           	
   738  0717                     l3370:	
   739                           ;PR9B.c: 85: TRISD=0b00000000;
   740  0717  0188               	clrf	(136)^080h	;volatile
   741                           	line	86
   742                           ;PR9B.c: 86: TRISC=0b11110000;
   743  0718  30F0               	movlw	(0F0h)
   744  0719  0087               	movwf	(135)^080h	;volatile
   745                           	line	87
   746                           	
   747  071A                     l3372:	
   748                           ;PR9B.c: 87: TRISE=0b00000000;
   749  071A  0189               	clrf	(137)^080h	;volatile
   750                           	line	89
   751                           	
   752  071B                     l3374:	
   753                           ;PR9B.c: 89: PORTC=0;
   754  071B  1283               	bcf	status, 5	;RP0=0, select bank0
   755  071C  1303               	bcf	status, 6	;RP1=0, select bank0
   756  071D  0187               	clrf	(7)	;volatile
   757                           	line	90
   758                           	
   759  071E                     l3376:	
   760                           ;PR9B.c: 90: PORTD=0;
   761  071E  0188               	clrf	(8)	;volatile
   762                           	line	91
   763                           	
   764  071F                     l3378:	
   765                           ;PR9B.c: 91: RB1=0;
   766  071F  1086               	bcf	(49/8),(49)&7
   767                           	line	92
   768                           	
   769  0720                     l3380:	
   770                           ;PR9B.c: 92: RB2=0;
   771  0720  1106               	bcf	(50/8),(50)&7
   772                           	line	93
   773                           	
   774  0721                     l3382:	
   775                           ;PR9B.c: 93: RC3=0;
   776  0721  1187               	bcf	(59/8),(59)&7
   777                           	line	94
   778                           	
   779  0722                     l3384:	
   780                           ;PR9B.c: 94: RC2=0;
   781  0722  1107               	bcf	(58/8),(58)&7
   782                           	line	96
   783                           	
   784  0723                     l3386:	
   785                           ;PR9B.c: 96: send_config(0b00001001);
   786  0723  3009               	movlw	(09h)
   787  0724  120A  118A  22EE   	fcall	_send_config
              120A  118A         
   788                           	line	97
   789                           	
   790  0729                     l3388:	
   791                           ;PR9B.c: 97: send_config(0b00000010);
   792  0729  3002               	movlw	(02h)
   793  072A  120A  118A  22EE   	fcall	_send_config
              120A  118A         
   794                           	line	98
   795                           	
   796  072F                     l3390:	
   797                           ;PR9B.c: 98: send_config(0b00000110);
   798  072F  3006               	movlw	(06h)
   799  0730  120A  118A  22EE   	fcall	_send_config
              120A  118A         
   800                           	line	99
   801                           	
   802  0735                     l3392:	
   803                           ;PR9B.c: 99: send_config(0b00001100);
   804  0735  300C               	movlw	(0Ch)
   805  0736  120A  118A  22EE   	fcall	_send_config
              120A  118A         
   806                           	line	100
   807                           	
   808  073B                     l3394:	
   809                           ;PR9B.c: 100: send_config(0b00111000);
   810  073B  3038               	movlw	(038h)
   811  073C  120A  118A  22EE   	fcall	_send_config
              120A  118A         
   812                           	line	102
   813                           	
   814  0741                     l3396:	
   815                           ;PR9B.c: 102: lcd_clr();
   816  0741  120A  118A  22DA   	fcall	_lcd_clr
              120A  118A         
   817                           	line	103
   818                           	
   819  0746                     l3398:	
   820                           ;PR9B.c: 103: delay(1000);
   821  0746  3000               	movlw	0
   822  0747  00F3               	movwf	(?_delay+3)
   823  0748  3000               	movlw	0
   824  0749  00F2               	movwf	(?_delay+2)
   825  074A  3003               	movlw	03h
   826  074B  00F1               	movwf	(?_delay+1)
   827  074C  30E8               	movlw	0E8h
   828  074D  00F0               	movwf	(?_delay)
   829                           
   830  074E  120A  118A  23B4   	fcall	_delay
              120A  118A         
   831                           	line	104
   832                           	
   833  0753                     l3400:	
   834                           ;PR9B.c: 104: lcd_goto(0);
   835  0753  3000               	movlw	(0)
   836  0754  120A  118A  2320   	fcall	_lcd_goto
              120A  118A         
   837                           	line	105
   838                           	
   839  0759                     l3402:	
   840                           ;PR9B.c: 105: send_string("PLEASE ENTER");
   841  0759  3012               	movlw	((STR_1-__stringbase))&0ffh
   842  075A  120A  118A  235E   	fcall	_send_string
              120A  118A         
   843                           	line	106
   844                           	
   845  075F                     l3404:	
   846                           ;PR9B.c: 106: lcd_goto(20);
   847  075F  3014               	movlw	(014h)
   848  0760  120A  118A  2320   	fcall	_lcd_goto
              120A  118A         
   849                           	line	107
   850                           	
   851  0765                     l3406:	
   852                           ;PR9B.c: 107: send_string("6-DIGIT PASSWORD");
   853  0765  3001               	movlw	((STR_2-__stringbase))&0ffh
   854  0766  120A  118A  235E   	fcall	_send_string
              120A  118A         
   855  076B  2F6C               	goto	l3408
   856                           	line	110
   857                           ;PR9B.c: 110: while(1)
   858                           	
   859  076C                     l725:	
   860                           	line	112
   861                           	
   862  076C                     l3408:	
   863                           ;PR9B.c: 111: {
   864                           ;PR9B.c: 112: clearrow1();
   865  076C  120A  118A  22AA   	fcall	_clearrow1
              120A  118A         
   866                           	line	113
   867                           	
   868  0771                     l3410:	
   869                           ;PR9B.c: 113: scancolumn1();
   870  0771  120A  118A  2418   	fcall	_scancolumn1
              120A  118A         
   871                           	line	114
   872                           	
   873  0776                     l3412:	
   874                           ;PR9B.c: 114: clearrow2();
   875  0776  120A  118A  22B1   	fcall	_clearrow2
              120A  118A         
   876                           	line	115
   877                           	
   878  077B                     l3414:	
   879                           ;PR9B.c: 115: scancolumn2();
   880  077B  120A  118A  24D6   	fcall	_scancolumn2
              120A  118A         
   881                           	line	116
   882                           	
   883  0780                     l3416:	
   884                           ;PR9B.c: 116: clearrow3();
   885  0780  120A  118A  22B8   	fcall	_clearrow3
              120A  118A         
   886                           	line	117
   887                           	
   888  0785                     l3418:	
   889                           ;PR9B.c: 117: scancolumn3();
   890  0785  120A  118A  2594   	fcall	_scancolumn3
              120A  118A         
   891                           	line	118
   892                           	
   893  078A                     l3420:	
   894                           ;PR9B.c: 118: clearrow4();
   895  078A  120A  118A  22BF   	fcall	_clearrow4
              120A  118A         
   896                           	line	119
   897                           	
   898  078F                     l3422:	
   899                           ;PR9B.c: 119: scancolumn4();
   900  078F  120A  118A  2652   	fcall	_scancolumn4
              120A  118A         
   901                           	line	121
   902                           	
   903  0794                     l3424:	
   904                           ;PR9B.c: 121: if(password_count==6)
   905  0794  087C               	movf	(_password_count),w
   906  0795  3A06               	xorlw	06h
   907  0796  1D03               	skipz
   908  0797  2F99               	goto	u3371
   909  0798  2F9A               	goto	u3370
   910  0799                     u3371:
   911  0799  2F6C               	goto	l3408
   912  079A                     u3370:
   913                           	line	123
   914                           	
   915  079A                     l3426:	
   916                           ;PR9B.c: 122: {
   917                           ;PR9B.c: 123: password_count=0;
   918  079A  01FC               	clrf	(_password_count)
   919                           	line	126
   920                           	
   921  079B                     l3428:	
   922                           ;PR9B.c: 124: if((keyin_char[0]==stalled_char[0])&&(keyin_char[1]==stalled_char[1])&&
   923                           ;PR9B.c: 125: (keyin_char[2]==stalled_char[2])&&(keyin_char[3]==stalled_char[3])&&
   924                           ;PR9B.c: 126: (keyin_char[4]==stalled_char[4])&&(keyin_char[5]==stalled_char[5]))
   925  079B  1283               	bcf	status, 5	;RP0=0, select bank0
   926  079C  1303               	bcf	status, 6	;RP1=0, select bank0
   927  079D  0820               	movf	(_keyin_char),w
   928  079E  0626               	xorwf	(_stalled_char),w
   929  079F  1D03               	skipz
   930  07A0  2FA2               	goto	u3381
   931  07A1  2FA3               	goto	u3380
   932  07A2                     u3381:
   933  07A2  2FDE               	goto	l3450
   934  07A3                     u3380:
   935                           	
   936  07A3                     l3430:	
   937  07A3  0821               	movf	0+(_keyin_char)+01h,w
   938  07A4  0627               	xorwf	0+(_stalled_char)+01h,w
   939  07A5  1D03               	skipz
   940  07A6  2FA8               	goto	u3391
   941  07A7  2FA9               	goto	u3390
   942  07A8                     u3391:
   943  07A8  2FDE               	goto	l3450
   944  07A9                     u3390:
   945                           	
   946  07A9                     l3432:	
   947  07A9  0822               	movf	0+(_keyin_char)+02h,w
   948  07AA  0628               	xorwf	0+(_stalled_char)+02h,w
   949  07AB  1D03               	skipz
   950  07AC  2FAE               	goto	u3401
   951  07AD  2FAF               	goto	u3400
   952  07AE                     u3401:
   953  07AE  2FDE               	goto	l3450
   954  07AF                     u3400:
   955                           	
   956  07AF                     l3434:	
   957  07AF  0823               	movf	0+(_keyin_char)+03h,w
   958  07B0  0629               	xorwf	0+(_stalled_char)+03h,w
   959  07B1  1D03               	skipz
   960  07B2  2FB4               	goto	u3411
   961  07B3  2FB5               	goto	u3410
   962  07B4                     u3411:
   963  07B4  2FDE               	goto	l3450
   964  07B5                     u3410:
   965                           	
   966  07B5                     l3436:	
   967  07B5  0824               	movf	0+(_keyin_char)+04h,w
   968  07B6  062A               	xorwf	0+(_stalled_char)+04h,w
   969  07B7  1D03               	skipz
   970  07B8  2FBA               	goto	u3421
   971  07B9  2FBB               	goto	u3420
   972  07BA                     u3421:
   973  07BA  2FDE               	goto	l3450
   974  07BB                     u3420:
   975                           	
   976  07BB                     l3438:	
   977  07BB  0825               	movf	0+(_keyin_char)+05h,w
   978  07BC  062B               	xorwf	0+(_stalled_char)+05h,w
   979  07BD  1D03               	skipz
   980  07BE  2FC0               	goto	u3431
   981  07BF  2FC1               	goto	u3430
   982  07C0                     u3431:
   983  07C0  2FDE               	goto	l3450
   984  07C1                     u3430:
   985                           	line	128
   986                           	
   987  07C1                     l3440:	
   988                           ;PR9B.c: 127: {
   989                           ;PR9B.c: 128: lcd_clr();
   990  07C1  120A  118A  22DA   	fcall	_lcd_clr
              120A  118A         
   991                           	line	129
   992                           ;PR9B.c: 129: lcd_goto(0);
   993  07C6  3000               	movlw	(0)
   994  07C7  120A  118A  2320   	fcall	_lcd_goto
              120A  118A         
   995                           	line	130
   996                           	
   997  07CC                     l3442:	
   998                           ;PR9B.c: 130: send_string("SUCCESS!");
   999  07CC  301F               	movlw	((STR_3-__stringbase))&0ffh
  1000  07CD  120A  118A  235E   	fcall	_send_string
              120A  118A         
  1001                           	line	131
  1002                           	
  1003  07D2                     l3444:	
  1004                           ;PR9B.c: 131: RC3=1;
  1005  07D2  1283               	bcf	status, 5	;RP0=0, select bank0
  1006  07D3  1303               	bcf	status, 6	;RP1=0, select bank0
  1007  07D4  1587               	bsf	(59/8),(59)&7
  1008                           	line	132
  1009                           	
  1010  07D5                     l3446:	
  1011                           ;PR9B.c: 132: RB1=1;
  1012  07D5  1486               	bsf	(49/8),(49)&7
  1013                           	line	133
  1014                           	
  1015  07D6                     l3448:	
  1016                           ;PR9B.c: 133: beep_once();
  1017  07D6  120A  118A  22C6   	fcall	_beep_once
              120A  118A         
  1018  07DB  2FDC               	goto	l729
  1019                           	line	134
  1020                           ;PR9B.c: 134: while(1);
  1021                           	
  1022  07DC                     l728:	
  1023                           	
  1024  07DC                     l729:	
  1025  07DC  2FDC               	goto	l729
  1026                           	
  1027  07DD                     l730:	
  1028                           	line	135
  1029                           ;PR9B.c: 135: }
  1030  07DD  2F6C               	goto	l3408
  1031                           	line	136
  1032                           	
  1033  07DE                     l727:	
  1034                           	line	138
  1035                           	
  1036  07DE                     l3450:	
  1037                           ;PR9B.c: 136: else
  1038                           ;PR9B.c: 137: {
  1039                           ;PR9B.c: 138: lcd_clr();
  1040  07DE  120A  118A  22DA   	fcall	_lcd_clr
              120A  118A         
  1041                           	line	139
  1042                           ;PR9B.c: 139: lcd_goto(0);
  1043  07E3  3000               	movlw	(0)
  1044  07E4  120A  118A  2320   	fcall	_lcd_goto
              120A  118A         
  1045                           	line	140
  1046                           	
  1047  07E9                     l3452:	
  1048                           ;PR9B.c: 140: send_string("ERROR!");
  1049  07E9  3028               	movlw	((STR_4-__stringbase))&0ffh
  1050  07EA  120A  118A  235E   	fcall	_send_string
              120A  118A         
  1051                           	line	141
  1052                           	
  1053  07EF                     l3454:	
  1054                           ;PR9B.c: 141: RC2=1;
  1055  07EF  1283               	bcf	status, 5	;RP0=0, select bank0
  1056  07F0  1303               	bcf	status, 6	;RP1=0, select bank0
  1057  07F1  1507               	bsf	(58/8),(58)&7
  1058                           	line	142
  1059                           	
  1060  07F2                     l3456:	
  1061                           ;PR9B.c: 142: beep_twice();
  1062  07F2  120A  118A  23E4   	fcall	_beep_twice
              120A  118A         
  1063  07F7  2FF8               	goto	l733
  1064                           	line	143
  1065                           ;PR9B.c: 143: while(1);
  1066                           	
  1067  07F8                     l732:	
  1068                           	
  1069  07F8                     l733:	
  1070  07F8  2FF8               	goto	l733
  1071                           	
  1072  07F9                     l734:	
  1073  07F9  2F6C               	goto	l3408
  1074                           	line	144
  1075                           	
  1076  07FA                     l731:	
  1077  07FA  2F6C               	goto	l3408
  1078                           	line	145
  1079                           	
  1080  07FB                     l726:	
  1081  07FB  2F6C               	goto	l3408
  1082                           	line	146
  1083                           	
  1084  07FC                     l735:	
  1085                           	line	110
  1086  07FC  2F6C               	goto	l3408
  1087                           	
  1088  07FD                     l736:	
  1089                           	line	147
  1090                           	
  1091  07FD                     l737:	
  1092                           	global	start
  1093  07FD  120A  118A  2800   	ljmp	start
  1094                           	opt stack 0
  1095                           GLOBAL	__end_of_main
  1096  0800                     	__end_of_main:
  1097 ;; =============== function _main ends ============
  1098                           
  1099                           	signat	_main,88
  1100                           	global	_scancolumn4
  1101                           psect	text437,local,class=CODE,delta=2
  1102                           global __ptext437
  1103  0652                     __ptext437:
  1104                           
  1105 ;; *************** function _scancolumn4 *****************
  1106 ;; Defined at:
  1107 ;;		line 305 in file "../../Source File/PR9B.c"
  1108 ;; Parameters:    Size  Location     Type
  1109 ;;		None
  1110 ;; Auto vars:     Size  Location     Type
  1111 ;;		None
  1112 ;; Return value:  Size  Location     Type
  1113 ;;		None               void
  1114 ;; Registers used:
  1115 ;;		wreg, fsr0l, fsr0h, status,2, status,0, pclath, cstack
  1116 ;; Tracked objects:
  1117 ;;		On entry : 0/0
  1118 ;;		On exit  : 0/0
  1119 ;;		Unchanged: 0/0
  1120 ;; Data sizes:     COMMON   BANK0   BANK1   BANK3   BANK2
  1121 ;;      Params:         0       0       0       0       0
  1122 ;;      Locals:         0       0       0       0       0
  1123 ;;      Temps:          1       0       0       0       0
  1124 ;;      Totals:         1       0       0       0       0
  1125 ;;Total ram usage:        1 bytes
  1126 ;; Hardware stack levels used:    1
  1127 ;; Hardware stack levels required when called:    4
  1128 ;; This function calls:
  1129 ;;		_lcd_clr
  1130 ;;		_lcd_goto
  1131 ;;		_send_char
  1132 ;; This function is called by:
  1133 ;;		_main
  1134 ;; This function uses a non-reentrant model
  1135 ;;
  1136                           psect	text437
  1137                           	file	"../../Source File/PR9B.c"
  1138                           	line	305
  1139                           	global	__size_of_scancolumn4
  1140  00BE                     	__size_of_scancolumn4	equ	__end_of_scancolumn4-_scancolumn4
  1141                           	
  1142  0652                     _scancolumn4:	
  1143                           	opt	stack 3
  1144                           ; Regs used in _scancolumn4: [wreg-fsr0h+status,2+status,0+pclath+cstack]
  1145                           	line	306
  1146                           	
  1147  0652                     l3324:	
  1148                           ;PR9B.c: 306: if(RA0==0)
  1149  0652  1283               	bcf	status, 5	;RP0=0, select bank0
  1150  0653  1303               	bcf	status, 6	;RP1=0, select bank0
  1151  0654  1805               	btfsc	(40/8),(40)&7
  1152  0655  2E57               	goto	u3251
  1153  0656  2E58               	goto	u3250
  1154  0657                     u3251:
  1155  0657  2E82               	goto	l830
  1156  0658                     u3250:
  1157  0658  2E5A               	goto	l831
  1158                           	line	308
  1159                           	
  1160  0659                     l3326:	
  1161                           ;PR9B.c: 307: {
  1162                           ;PR9B.c: 308: while(RA0==0)continue;
  1163  0659  2E5A               	goto	l831
  1164                           	
  1165  065A                     l832:	
  1166                           	
  1167  065A                     l831:	
  1168  065A  1C05               	btfss	(40/8),(40)&7
  1169  065B  2E5D               	goto	u3261
  1170  065C  2E5E               	goto	u3260
  1171  065D                     u3261:
  1172  065D  2E5A               	goto	l831
  1173  065E                     u3260:
  1174  065E  2E5F               	goto	l3328
  1175                           	
  1176  065F                     l833:	
  1177                           	line	309
  1178                           	
  1179  065F                     l3328:	
  1180                           ;PR9B.c: 309: if(password_count==0)lcd_clr();
  1181  065F  08FC               	movf	(_password_count),f
  1182  0660  1D03               	skipz
  1183  0661  2E63               	goto	u3271
  1184  0662  2E64               	goto	u3270
  1185  0663                     u3271:
  1186  0663  2E69               	goto	l834
  1187  0664                     u3270:
  1188                           	
  1189  0664                     l3330:	
  1190  0664  120A  118A  22DA   	fcall	_lcd_clr
              120A  118A         
  1191                           	
  1192  0669                     l834:	
  1193                           	line	310
  1194                           ;PR9B.c: 310: lcd_goto(password_count);
  1195  0669  087C               	movf	(_password_count),w
  1196  066A  120A  118A  2320   	fcall	_lcd_goto
              120A  118A         
  1197                           	line	311
  1198                           ;PR9B.c: 311: send_char('*');
  1199  066F  302A               	movlw	(02Ah)
  1200  0670  120A  118A  2307   	fcall	_send_char
              120A  118A         
  1201                           	line	312
  1202                           	
  1203  0675                     l3332:	
  1204                           ;PR9B.c: 312: keyin_char[password_count]='*';
  1205  0675  302A               	movlw	(02Ah)
  1206  0676  00FB               	movwf	(??_scancolumn4+0)+0
  1207  0677  087C               	movf	(_password_count),w
  1208  0678  3E20               	addlw	_keyin_char&0ffh
  1209  0679  0084               	movwf	fsr0
  1210  067A  087B               	movf	(??_scancolumn4+0)+0,w
  1211  067B  1383               	bcf	status, 7	;select IRP bank0
  1212  067C  0080               	movwf	indf
  1213                           	line	313
  1214                           	
  1215  067D                     l3334:	
  1216                           ;PR9B.c: 313: password_count+=1;
  1217  067D  3001               	movlw	(01h)
  1218  067E  00FB               	movwf	(??_scancolumn4+0)+0
  1219  067F  087B               	movf	(??_scancolumn4+0)+0,w
  1220  0680  07FC               	addwf	(_password_count),f
  1221                           	line	314
  1222                           ;PR9B.c: 314: }
  1223  0681  2F0F               	goto	l853
  1224                           	line	315
  1225                           	
  1226  0682                     l830:	
  1227                           ;PR9B.c: 315: else if(RA1==0)
  1228  0682  1885               	btfsc	(41/8),(41)&7
  1229  0683  2E85               	goto	u3281
  1230  0684  2E86               	goto	u3280
  1231  0685                     u3281:
  1232  0685  2EB0               	goto	l836
  1233  0686                     u3280:
  1234  0686  2E88               	goto	l837
  1235                           	line	317
  1236                           	
  1237  0687                     l3336:	
  1238                           ;PR9B.c: 316: {
  1239                           ;PR9B.c: 317: while(RA1==0)continue;
  1240  0687  2E88               	goto	l837
  1241                           	
  1242  0688                     l838:	
  1243                           	
  1244  0688                     l837:	
  1245  0688  1C85               	btfss	(41/8),(41)&7
  1246  0689  2E8B               	goto	u3291
  1247  068A  2E8C               	goto	u3290
  1248  068B                     u3291:
  1249  068B  2E88               	goto	l837
  1250  068C                     u3290:
  1251  068C  2E8D               	goto	l3338
  1252                           	
  1253  068D                     l839:	
  1254                           	line	318
  1255                           	
  1256  068D                     l3338:	
  1257                           ;PR9B.c: 318: if(password_count==0)lcd_clr();
  1258  068D  08FC               	movf	(_password_count),f
  1259  068E  1D03               	skipz
  1260  068F  2E91               	goto	u3301
  1261  0690  2E92               	goto	u3300
  1262  0691                     u3301:
  1263  0691  2E97               	goto	l840
  1264  0692                     u3300:
  1265                           	
  1266  0692                     l3340:	
  1267  0692  120A  118A  22DA   	fcall	_lcd_clr
              120A  118A         
  1268                           	
  1269  0697                     l840:	
  1270                           	line	319
  1271                           ;PR9B.c: 319: lcd_goto(password_count);
  1272  0697  087C               	movf	(_password_count),w
  1273  0698  120A  118A  2320   	fcall	_lcd_goto
              120A  118A         
  1274                           	line	320
  1275                           ;PR9B.c: 320: send_char('*');
  1276  069D  302A               	movlw	(02Ah)
  1277  069E  120A  118A  2307   	fcall	_send_char
              120A  118A         
  1278                           	line	321
  1279                           	
  1280  06A3                     l3342:	
  1281                           ;PR9B.c: 321: keyin_char[password_count]='0';
  1282  06A3  3030               	movlw	(030h)
  1283  06A4  00FB               	movwf	(??_scancolumn4+0)+0
  1284  06A5  087C               	movf	(_password_count),w
  1285  06A6  3E20               	addlw	_keyin_char&0ffh
  1286  06A7  0084               	movwf	fsr0
  1287  06A8  087B               	movf	(??_scancolumn4+0)+0,w
  1288  06A9  1383               	bcf	status, 7	;select IRP bank0
  1289  06AA  0080               	movwf	indf
  1290                           	line	322
  1291                           	
  1292  06AB                     l3344:	
  1293                           ;PR9B.c: 322: password_count+=1;
  1294  06AB  3001               	movlw	(01h)
  1295  06AC  00FB               	movwf	(??_scancolumn4+0)+0
  1296  06AD  087B               	movf	(??_scancolumn4+0)+0,w
  1297  06AE  07FC               	addwf	(_password_count),f
  1298                           	line	323
  1299                           ;PR9B.c: 323: }
  1300  06AF  2F0F               	goto	l853
  1301                           	line	324
  1302                           	
  1303  06B0                     l836:	
  1304                           ;PR9B.c: 324: else if(RA2==0)
  1305  06B0  1905               	btfsc	(42/8),(42)&7
  1306  06B1  2EB3               	goto	u3311
  1307  06B2  2EB4               	goto	u3310
  1308  06B3                     u3311:
  1309  06B3  2EDE               	goto	l842
  1310  06B4                     u3310:
  1311  06B4  2EB6               	goto	l843
  1312                           	line	326
  1313                           	
  1314  06B5                     l3346:	
  1315                           ;PR9B.c: 325: {
  1316                           ;PR9B.c: 326: while(RA2==0)continue;
  1317  06B5  2EB6               	goto	l843
  1318                           	
  1319  06B6                     l844:	
  1320                           	
  1321  06B6                     l843:	
  1322  06B6  1D05               	btfss	(42/8),(42)&7
  1323  06B7  2EB9               	goto	u3321
  1324  06B8  2EBA               	goto	u3320
  1325  06B9                     u3321:
  1326  06B9  2EB6               	goto	l843
  1327  06BA                     u3320:
  1328  06BA  2EBB               	goto	l3348
  1329                           	
  1330  06BB                     l845:	
  1331                           	line	327
  1332                           	
  1333  06BB                     l3348:	
  1334                           ;PR9B.c: 327: if(password_count==0)lcd_clr();
  1335  06BB  08FC               	movf	(_password_count),f
  1336  06BC  1D03               	skipz
  1337  06BD  2EBF               	goto	u3331
  1338  06BE  2EC0               	goto	u3330
  1339  06BF                     u3331:
  1340  06BF  2EC5               	goto	l846
  1341  06C0                     u3330:
  1342                           	
  1343  06C0                     l3350:	
  1344  06C0  120A  118A  22DA   	fcall	_lcd_clr
              120A  118A         
  1345                           	
  1346  06C5                     l846:	
  1347                           	line	328
  1348                           ;PR9B.c: 328: lcd_goto(password_count);
  1349  06C5  087C               	movf	(_password_count),w
  1350  06C6  120A  118A  2320   	fcall	_lcd_goto
              120A  118A         
  1351                           	line	329
  1352                           ;PR9B.c: 329: send_char('*');
  1353  06CB  302A               	movlw	(02Ah)
  1354  06CC  120A  118A  2307   	fcall	_send_char
              120A  118A         
  1355                           	line	330
  1356                           	
  1357  06D1                     l3352:	
  1358                           ;PR9B.c: 330: keyin_char[password_count]='#';
  1359  06D1  3023               	movlw	(023h)
  1360  06D2  00FB               	movwf	(??_scancolumn4+0)+0
  1361  06D3  087C               	movf	(_password_count),w
  1362  06D4  3E20               	addlw	_keyin_char&0ffh
  1363  06D5  0084               	movwf	fsr0
  1364  06D6  087B               	movf	(??_scancolumn4+0)+0,w
  1365  06D7  1383               	bcf	status, 7	;select IRP bank0
  1366  06D8  0080               	movwf	indf
  1367                           	line	331
  1368                           	
  1369  06D9                     l3354:	
  1370                           ;PR9B.c: 331: password_count+=1;
  1371  06D9  3001               	movlw	(01h)
  1372  06DA  00FB               	movwf	(??_scancolumn4+0)+0
  1373  06DB  087B               	movf	(??_scancolumn4+0)+0,w
  1374  06DC  07FC               	addwf	(_password_count),f
  1375                           	line	332
  1376                           ;PR9B.c: 332: }
  1377  06DD  2F0F               	goto	l853
  1378                           	line	333
  1379                           	
  1380  06DE                     l842:	
  1381                           ;PR9B.c: 333: else if(RA3==0)
  1382  06DE  1985               	btfsc	(43/8),(43)&7
  1383  06DF  2EE1               	goto	u3341
  1384  06E0  2EE2               	goto	u3340
  1385  06E1                     u3341:
  1386  06E1  2F0F               	goto	l853
  1387  06E2                     u3340:
  1388  06E2  2EE4               	goto	l849
  1389                           	line	335
  1390                           	
  1391  06E3                     l3356:	
  1392                           ;PR9B.c: 334: {
  1393                           ;PR9B.c: 335: while(RA3==0)continue;
  1394  06E3  2EE4               	goto	l849
  1395                           	
  1396  06E4                     l850:	
  1397                           	
  1398  06E4                     l849:	
  1399  06E4  1D85               	btfss	(43/8),(43)&7
  1400  06E5  2EE7               	goto	u3351
  1401  06E6  2EE8               	goto	u3350
  1402  06E7                     u3351:
  1403  06E7  2EE4               	goto	l849
  1404  06E8                     u3350:
  1405  06E8  2EE9               	goto	l3358
  1406                           	
  1407  06E9                     l851:	
  1408                           	line	336
  1409                           	
  1410  06E9                     l3358:	
  1411                           ;PR9B.c: 336: if(password_count==0)lcd_clr();
  1412  06E9  08FC               	movf	(_password_count),f
  1413  06EA  1D03               	skipz
  1414  06EB  2EED               	goto	u3361
  1415  06EC  2EEE               	goto	u3360
  1416  06ED                     u3361:
  1417  06ED  2EF3               	goto	l852
  1418  06EE                     u3360:
  1419                           	
  1420  06EE                     l3360:	
  1421  06EE  120A  118A  22DA   	fcall	_lcd_clr
              120A  118A         
  1422                           	
  1423  06F3                     l852:	
  1424                           	line	337
  1425                           ;PR9B.c: 337: lcd_goto(password_count);
  1426  06F3  087C               	movf	(_password_count),w
  1427  06F4  120A  118A  2320   	fcall	_lcd_goto
              120A  118A         
  1428                           	line	338
  1429                           ;PR9B.c: 338: send_char('*');
  1430  06F9  302A               	movlw	(02Ah)
  1431  06FA  120A  118A  2307   	fcall	_send_char
              120A  118A         
  1432                           	line	339
  1433                           	
  1434  06FF                     l3362:	
  1435                           ;PR9B.c: 339: keyin_char[password_count]='D';
  1436  06FF  3044               	movlw	(044h)
  1437  0700  00FB               	movwf	(??_scancolumn4+0)+0
  1438  0701  087C               	movf	(_password_count),w
  1439  0702  3E20               	addlw	_keyin_char&0ffh
  1440  0703  0084               	movwf	fsr0
  1441  0704  087B               	movf	(??_scancolumn4+0)+0,w
  1442  0705  1383               	bcf	status, 7	;select IRP bank0
  1443  0706  0080               	movwf	indf
  1444                           	line	340
  1445                           	
  1446  0707                     l3364:	
  1447                           ;PR9B.c: 340: password_count+=1;
  1448  0707  3001               	movlw	(01h)
  1449  0708  00FB               	movwf	(??_scancolumn4+0)+0
  1450  0709  087B               	movf	(??_scancolumn4+0)+0,w
  1451  070A  07FC               	addwf	(_password_count),f
  1452  070B  2F0F               	goto	l853
  1453                           	line	341
  1454                           	
  1455  070C                     l848:	
  1456  070C  2F0F               	goto	l853
  1457                           	line	342
  1458                           	
  1459  070D                     l847:	
  1460  070D  2F0F               	goto	l853
  1461                           	
  1462  070E                     l841:	
  1463  070E  2F0F               	goto	l853
  1464                           	
  1465  070F                     l835:	
  1466                           	
  1467  070F                     l853:	
  1468  070F  0008               	return
  1469                           	opt stack 0
  1470                           GLOBAL	__end_of_scancolumn4
  1471  0710                     	__end_of_scancolumn4:
  1472 ;; =============== function _scancolumn4 ends ============
  1473                           
  1474                           	signat	_scancolumn4,88
  1475                           	global	_scancolumn3
  1476                           psect	text438,local,class=CODE,delta=2
  1477                           global __ptext438
  1478  0594                     __ptext438:
  1479                           
  1480 ;; *************** function _scancolumn3 *****************
  1481 ;; Defined at:
  1482 ;;		line 265 in file "../../Source File/PR9B.c"
  1483 ;; Parameters:    Size  Location     Type
  1484 ;;		None
  1485 ;; Auto vars:     Size  Location     Type
  1486 ;;		None
  1487 ;; Return value:  Size  Location     Type
  1488 ;;		None               void
  1489 ;; Registers used:
  1490 ;;		wreg, fsr0l, fsr0h, status,2, status,0, pclath, cstack
  1491 ;; Tracked objects:
  1492 ;;		On entry : 0/0
  1493 ;;		On exit  : 0/0
  1494 ;;		Unchanged: 0/0
  1495 ;; Data sizes:     COMMON   BANK0   BANK1   BANK3   BANK2
  1496 ;;      Params:         0       0       0       0       0
  1497 ;;      Locals:         0       0       0       0       0
  1498 ;;      Temps:          1       0       0       0       0
  1499 ;;      Totals:         1       0       0       0       0
  1500 ;;Total ram usage:        1 bytes
  1501 ;; Hardware stack levels used:    1
  1502 ;; Hardware stack levels required when called:    4
  1503 ;; This function calls:
  1504 ;;		_lcd_clr
  1505 ;;		_lcd_goto
  1506 ;;		_send_char
  1507 ;; This function is called by:
  1508 ;;		_main
  1509 ;; This function uses a non-reentrant model
  1510 ;;
  1511                           psect	text438
  1512                           	file	"../../Source File/PR9B.c"
  1513                           	line	265
  1514                           	global	__size_of_scancolumn3
  1515  00BE                     	__size_of_scancolumn3	equ	__end_of_scancolumn3-_scancolumn3
  1516                           	
  1517  0594                     _scancolumn3:	
  1518                           	opt	stack 3
  1519                           ; Regs used in _scancolumn3: [wreg-fsr0h+status,2+status,0+pclath+cstack]
  1520                           	line	266
  1521                           	
  1522  0594                     l3282:	
  1523                           ;PR9B.c: 266: if(RA0==0)
  1524  0594  1283               	bcf	status, 5	;RP0=0, select bank0
  1525  0595  1303               	bcf	status, 6	;RP1=0, select bank0
  1526  0596  1805               	btfsc	(40/8),(40)&7
  1527  0597  2D99               	goto	u3131
  1528  0598  2D9A               	goto	u3130
  1529  0599                     u3131:
  1530  0599  2DC4               	goto	l804
  1531  059A                     u3130:
  1532  059A  2D9C               	goto	l805
  1533                           	line	268
  1534                           	
  1535  059B                     l3284:	
  1536                           ;PR9B.c: 267: {
  1537                           ;PR9B.c: 268: while(RA0==0)continue;
  1538  059B  2D9C               	goto	l805
  1539                           	
  1540  059C                     l806:	
  1541                           	
  1542  059C                     l805:	
  1543  059C  1C05               	btfss	(40/8),(40)&7
  1544  059D  2D9F               	goto	u3141
  1545  059E  2DA0               	goto	u3140
  1546  059F                     u3141:
  1547  059F  2D9C               	goto	l805
  1548  05A0                     u3140:
  1549  05A0  2DA1               	goto	l3286
  1550                           	
  1551  05A1                     l807:	
  1552                           	line	269
  1553                           	
  1554  05A1                     l3286:	
  1555                           ;PR9B.c: 269: if(password_count==0)lcd_clr();
  1556  05A1  08FC               	movf	(_password_count),f
  1557  05A2  1D03               	skipz
  1558  05A3  2DA5               	goto	u3151
  1559  05A4  2DA6               	goto	u3150
  1560  05A5                     u3151:
  1561  05A5  2DAB               	goto	l808
  1562  05A6                     u3150:
  1563                           	
  1564  05A6                     l3288:	
  1565  05A6  120A  118A  22DA   	fcall	_lcd_clr
              120A  118A         
  1566                           	
  1567  05AB                     l808:	
  1568                           	line	270
  1569                           ;PR9B.c: 270: lcd_goto(password_count);
  1570  05AB  087C               	movf	(_password_count),w
  1571  05AC  120A  118A  2320   	fcall	_lcd_goto
              120A  118A         
  1572                           	line	271
  1573                           ;PR9B.c: 271: send_char('*');
  1574  05B1  302A               	movlw	(02Ah)
  1575  05B2  120A  118A  2307   	fcall	_send_char
              120A  118A         
  1576                           	line	272
  1577                           	
  1578  05B7                     l3290:	
  1579                           ;PR9B.c: 272: keyin_char[password_count]='7';
  1580  05B7  3037               	movlw	(037h)
  1581  05B8  00FB               	movwf	(??_scancolumn3+0)+0
  1582  05B9  087C               	movf	(_password_count),w
  1583  05BA  3E20               	addlw	_keyin_char&0ffh
  1584  05BB  0084               	movwf	fsr0
  1585  05BC  087B               	movf	(??_scancolumn3+0)+0,w
  1586  05BD  1383               	bcf	status, 7	;select IRP bank0
  1587  05BE  0080               	movwf	indf
  1588                           	line	273
  1589                           	
  1590  05BF                     l3292:	
  1591                           ;PR9B.c: 273: password_count+=1;
  1592  05BF  3001               	movlw	(01h)
  1593  05C0  00FB               	movwf	(??_scancolumn3+0)+0
  1594  05C1  087B               	movf	(??_scancolumn3+0)+0,w
  1595  05C2  07FC               	addwf	(_password_count),f
  1596                           	line	274
  1597                           ;PR9B.c: 274: }
  1598  05C3  2E51               	goto	l827
  1599                           	line	275
  1600                           	
  1601  05C4                     l804:	
  1602                           ;PR9B.c: 275: else if(RA1==0)
  1603  05C4  1885               	btfsc	(41/8),(41)&7
  1604  05C5  2DC7               	goto	u3161
  1605  05C6  2DC8               	goto	u3160
  1606  05C7                     u3161:
  1607  05C7  2DF2               	goto	l810
  1608  05C8                     u3160:
  1609  05C8  2DCA               	goto	l811
  1610                           	line	277
  1611                           	
  1612  05C9                     l3294:	
  1613                           ;PR9B.c: 276: {
  1614                           ;PR9B.c: 277: while(RA1==0)continue;
  1615  05C9  2DCA               	goto	l811
  1616                           	
  1617  05CA                     l812:	
  1618                           	
  1619  05CA                     l811:	
  1620  05CA  1C85               	btfss	(41/8),(41)&7
  1621  05CB  2DCD               	goto	u3171
  1622  05CC  2DCE               	goto	u3170
  1623  05CD                     u3171:
  1624  05CD  2DCA               	goto	l811
  1625  05CE                     u3170:
  1626  05CE  2DCF               	goto	l3296
  1627                           	
  1628  05CF                     l813:	
  1629                           	line	278
  1630                           	
  1631  05CF                     l3296:	
  1632                           ;PR9B.c: 278: if(password_count==0)lcd_clr();
  1633  05CF  08FC               	movf	(_password_count),f
  1634  05D0  1D03               	skipz
  1635  05D1  2DD3               	goto	u3181
  1636  05D2  2DD4               	goto	u3180
  1637  05D3                     u3181:
  1638  05D3  2DD9               	goto	l814
  1639  05D4                     u3180:
  1640                           	
  1641  05D4                     l3298:	
  1642  05D4  120A  118A  22DA   	fcall	_lcd_clr
              120A  118A         
  1643                           	
  1644  05D9                     l814:	
  1645                           	line	279
  1646                           ;PR9B.c: 279: lcd_goto(password_count);
  1647  05D9  087C               	movf	(_password_count),w
  1648  05DA  120A  118A  2320   	fcall	_lcd_goto
              120A  118A         
  1649                           	line	280
  1650                           ;PR9B.c: 280: send_char('*');
  1651  05DF  302A               	movlw	(02Ah)
  1652  05E0  120A  118A  2307   	fcall	_send_char
              120A  118A         
  1653                           	line	281
  1654                           	
  1655  05E5                     l3300:	
  1656                           ;PR9B.c: 281: keyin_char[password_count]='8';
  1657  05E5  3038               	movlw	(038h)
  1658  05E6  00FB               	movwf	(??_scancolumn3+0)+0
  1659  05E7  087C               	movf	(_password_count),w
  1660  05E8  3E20               	addlw	_keyin_char&0ffh
  1661  05E9  0084               	movwf	fsr0
  1662  05EA  087B               	movf	(??_scancolumn3+0)+0,w
  1663  05EB  1383               	bcf	status, 7	;select IRP bank0
  1664  05EC  0080               	movwf	indf
  1665                           	line	282
  1666                           	
  1667  05ED                     l3302:	
  1668                           ;PR9B.c: 282: password_count+=1;
  1669  05ED  3001               	movlw	(01h)
  1670  05EE  00FB               	movwf	(??_scancolumn3+0)+0
  1671  05EF  087B               	movf	(??_scancolumn3+0)+0,w
  1672  05F0  07FC               	addwf	(_password_count),f
  1673                           	line	283
  1674                           ;PR9B.c: 283: }
  1675  05F1  2E51               	goto	l827
  1676                           	line	284
  1677                           	
  1678  05F2                     l810:	
  1679                           ;PR9B.c: 284: else if(RA2==0)
  1680  05F2  1905               	btfsc	(42/8),(42)&7
  1681  05F3  2DF5               	goto	u3191
  1682  05F4  2DF6               	goto	u3190
  1683  05F5                     u3191:
  1684  05F5  2E20               	goto	l816
  1685  05F6                     u3190:
  1686  05F6  2DF8               	goto	l817
  1687                           	line	286
  1688                           	
  1689  05F7                     l3304:	
  1690                           ;PR9B.c: 285: {
  1691                           ;PR9B.c: 286: while(RA2==0)continue;
  1692  05F7  2DF8               	goto	l817
  1693                           	
  1694  05F8                     l818:	
  1695                           	
  1696  05F8                     l817:	
  1697  05F8  1D05               	btfss	(42/8),(42)&7
  1698  05F9  2DFB               	goto	u3201
  1699  05FA  2DFC               	goto	u3200
  1700  05FB                     u3201:
  1701  05FB  2DF8               	goto	l817
  1702  05FC                     u3200:
  1703  05FC  2DFD               	goto	l3306
  1704                           	
  1705  05FD                     l819:	
  1706                           	line	287
  1707                           	
  1708  05FD                     l3306:	
  1709                           ;PR9B.c: 287: if(password_count==0)lcd_clr();
  1710  05FD  08FC               	movf	(_password_count),f
  1711  05FE  1D03               	skipz
  1712  05FF  2E01               	goto	u3211
  1713  0600  2E02               	goto	u3210
  1714  0601                     u3211:
  1715  0601  2E07               	goto	l820
  1716  0602                     u3210:
  1717                           	
  1718  0602                     l3308:	
  1719  0602  120A  118A  22DA   	fcall	_lcd_clr
              120A  118A         
  1720                           	
  1721  0607                     l820:	
  1722                           	line	288
  1723                           ;PR9B.c: 288: lcd_goto(password_count);
  1724  0607  087C               	movf	(_password_count),w
  1725  0608  120A  118A  2320   	fcall	_lcd_goto
              120A  118A         
  1726                           	line	289
  1727                           ;PR9B.c: 289: send_char('*');
  1728  060D  302A               	movlw	(02Ah)
  1729  060E  120A  118A  2307   	fcall	_send_char
              120A  118A         
  1730                           	line	290
  1731                           	
  1732  0613                     l3310:	
  1733                           ;PR9B.c: 290: keyin_char[password_count]='9';
  1734  0613  3039               	movlw	(039h)
  1735  0614  00FB               	movwf	(??_scancolumn3+0)+0
  1736  0615  087C               	movf	(_password_count),w
  1737  0616  3E20               	addlw	_keyin_char&0ffh
  1738  0617  0084               	movwf	fsr0
  1739  0618  087B               	movf	(??_scancolumn3+0)+0,w
  1740  0619  1383               	bcf	status, 7	;select IRP bank0
  1741  061A  0080               	movwf	indf
  1742                           	line	291
  1743                           	
  1744  061B                     l3312:	
  1745                           ;PR9B.c: 291: password_count+=1;
  1746  061B  3001               	movlw	(01h)
  1747  061C  00FB               	movwf	(??_scancolumn3+0)+0
  1748  061D  087B               	movf	(??_scancolumn3+0)+0,w
  1749  061E  07FC               	addwf	(_password_count),f
  1750                           	line	292
  1751                           ;PR9B.c: 292: }
  1752  061F  2E51               	goto	l827
  1753                           	line	293
  1754                           	
  1755  0620                     l816:	
  1756                           ;PR9B.c: 293: else if(RA3==0)
  1757  0620  1985               	btfsc	(43/8),(43)&7
  1758  0621  2E23               	goto	u3221
  1759  0622  2E24               	goto	u3220
  1760  0623                     u3221:
  1761  0623  2E51               	goto	l827
  1762  0624                     u3220:
  1763  0624  2E26               	goto	l823
  1764                           	line	295
  1765                           	
  1766  0625                     l3314:	
  1767                           ;PR9B.c: 294: {
  1768                           ;PR9B.c: 295: while(RA3==0)continue;
  1769  0625  2E26               	goto	l823
  1770                           	
  1771  0626                     l824:	
  1772                           	
  1773  0626                     l823:	
  1774  0626  1D85               	btfss	(43/8),(43)&7
  1775  0627  2E29               	goto	u3231
  1776  0628  2E2A               	goto	u3230
  1777  0629                     u3231:
  1778  0629  2E26               	goto	l823
  1779  062A                     u3230:
  1780  062A  2E2B               	goto	l3316
  1781                           	
  1782  062B                     l825:	
  1783                           	line	296
  1784                           	
  1785  062B                     l3316:	
  1786                           ;PR9B.c: 296: if(password_count==0)lcd_clr();
  1787  062B  08FC               	movf	(_password_count),f
  1788  062C  1D03               	skipz
  1789  062D  2E2F               	goto	u3241
  1790  062E  2E30               	goto	u3240
  1791  062F                     u3241:
  1792  062F  2E35               	goto	l826
  1793  0630                     u3240:
  1794                           	
  1795  0630                     l3318:	
  1796  0630  120A  118A  22DA   	fcall	_lcd_clr
              120A  118A         
  1797                           	
  1798  0635                     l826:	
  1799                           	line	297
  1800                           ;PR9B.c: 297: lcd_goto(password_count);
  1801  0635  087C               	movf	(_password_count),w
  1802  0636  120A  118A  2320   	fcall	_lcd_goto
              120A  118A         
  1803                           	line	298
  1804                           ;PR9B.c: 298: send_char('*');
  1805  063B  302A               	movlw	(02Ah)
  1806  063C  120A  118A  2307   	fcall	_send_char
              120A  118A         
  1807                           	line	299
  1808                           	
  1809  0641                     l3320:	
  1810                           ;PR9B.c: 299: keyin_char[password_count]='C';
  1811  0641  3043               	movlw	(043h)
  1812  0642  00FB               	movwf	(??_scancolumn3+0)+0
  1813  0643  087C               	movf	(_password_count),w
  1814  0644  3E20               	addlw	_keyin_char&0ffh
  1815  0645  0084               	movwf	fsr0
  1816  0646  087B               	movf	(??_scancolumn3+0)+0,w
  1817  0647  1383               	bcf	status, 7	;select IRP bank0
  1818  0648  0080               	movwf	indf
  1819                           	line	300
  1820                           	
  1821  0649                     l3322:	
  1822                           ;PR9B.c: 300: password_count+=1;
  1823  0649  3001               	movlw	(01h)
  1824  064A  00FB               	movwf	(??_scancolumn3+0)+0
  1825  064B  087B               	movf	(??_scancolumn3+0)+0,w
  1826  064C  07FC               	addwf	(_password_count),f
  1827  064D  2E51               	goto	l827
  1828                           	line	301
  1829                           	
  1830  064E                     l822:	
  1831  064E  2E51               	goto	l827
  1832                           	line	302
  1833                           	
  1834  064F                     l821:	
  1835  064F  2E51               	goto	l827
  1836                           	
  1837  0650                     l815:	
  1838  0650  2E51               	goto	l827
  1839                           	
  1840  0651                     l809:	
  1841                           	
  1842  0651                     l827:	
  1843  0651  0008               	return
  1844                           	opt stack 0
  1845                           GLOBAL	__end_of_scancolumn3
  1846  0652                     	__end_of_scancolumn3:
  1847 ;; =============== function _scancolumn3 ends ============
  1848                           
  1849                           	signat	_scancolumn3,88
  1850                           	global	_scancolumn2
  1851                           psect	text439,local,class=CODE,delta=2
  1852                           global __ptext439
  1853  04D6                     __ptext439:
  1854                           
  1855 ;; *************** function _scancolumn2 *****************
  1856 ;; Defined at:
  1857 ;;		line 225 in file "../../Source File/PR9B.c"
  1858 ;; Parameters:    Size  Location     Type
  1859 ;;		None
  1860 ;; Auto vars:     Size  Location     Type
  1861 ;;		None
  1862 ;; Return value:  Size  Location     Type
  1863 ;;		None               void
  1864 ;; Registers used:
  1865 ;;		wreg, fsr0l, fsr0h, status,2, status,0, pclath, cstack
  1866 ;; Tracked objects:
  1867 ;;		On entry : 0/0
  1868 ;;		On exit  : 0/0
  1869 ;;		Unchanged: 0/0
  1870 ;; Data sizes:     COMMON   BANK0   BANK1   BANK3   BANK2
  1871 ;;      Params:         0       0       0       0       0
  1872 ;;      Locals:         0       0       0       0       0
  1873 ;;      Temps:          1       0       0       0       0
  1874 ;;      Totals:         1       0       0       0       0
  1875 ;;Total ram usage:        1 bytes
  1876 ;; Hardware stack levels used:    1
  1877 ;; Hardware stack levels required when called:    4
  1878 ;; This function calls:
  1879 ;;		_lcd_clr
  1880 ;;		_lcd_goto
  1881 ;;		_send_char
  1882 ;; This function is called by:
  1883 ;;		_main
  1884 ;; This function uses a non-reentrant model
  1885 ;;
  1886                           psect	text439
  1887                           	file	"../../Source File/PR9B.c"
  1888                           	line	225
  1889                           	global	__size_of_scancolumn2
  1890  00BE                     	__size_of_scancolumn2	equ	__end_of_scancolumn2-_scancolumn2
  1891                           	
  1892  04D6                     _scancolumn2:	
  1893                           	opt	stack 3
  1894                           ; Regs used in _scancolumn2: [wreg-fsr0h+status,2+status,0+pclath+cstack]
  1895                           	line	226
  1896                           	
  1897  04D6                     l3240:	
  1898                           ;PR9B.c: 226: if(RA0==0)
  1899  04D6  1283               	bcf	status, 5	;RP0=0, select bank0
  1900  04D7  1303               	bcf	status, 6	;RP1=0, select bank0
  1901  04D8  1805               	btfsc	(40/8),(40)&7
  1902  04D9  2CDB               	goto	u3011
  1903  04DA  2CDC               	goto	u3010
  1904  04DB                     u3011:
  1905  04DB  2D06               	goto	l778
  1906  04DC                     u3010:
  1907  04DC  2CDE               	goto	l779
  1908                           	line	228
  1909                           	
  1910  04DD                     l3242:	
  1911                           ;PR9B.c: 227: {
  1912                           ;PR9B.c: 228: while(RA0==0)continue;
  1913  04DD  2CDE               	goto	l779
  1914                           	
  1915  04DE                     l780:	
  1916                           	
  1917  04DE                     l779:	
  1918  04DE  1C05               	btfss	(40/8),(40)&7
  1919  04DF  2CE1               	goto	u3021
  1920  04E0  2CE2               	goto	u3020
  1921  04E1                     u3021:
  1922  04E1  2CDE               	goto	l779
  1923  04E2                     u3020:
  1924  04E2  2CE3               	goto	l3244
  1925                           	
  1926  04E3                     l781:	
  1927                           	line	229
  1928                           	
  1929  04E3                     l3244:	
  1930                           ;PR9B.c: 229: if(password_count==0)lcd_clr();
  1931  04E3  08FC               	movf	(_password_count),f
  1932  04E4  1D03               	skipz
  1933  04E5  2CE7               	goto	u3031
  1934  04E6  2CE8               	goto	u3030
  1935  04E7                     u3031:
  1936  04E7  2CED               	goto	l782
  1937  04E8                     u3030:
  1938                           	
  1939  04E8                     l3246:	
  1940  04E8  120A  118A  22DA   	fcall	_lcd_clr
              120A  118A         
  1941                           	
  1942  04ED                     l782:	
  1943                           	line	230
  1944                           ;PR9B.c: 230: lcd_goto(password_count);
  1945  04ED  087C               	movf	(_password_count),w
  1946  04EE  120A  118A  2320   	fcall	_lcd_goto
              120A  118A         
  1947                           	line	231
  1948                           ;PR9B.c: 231: send_char('*');
  1949  04F3  302A               	movlw	(02Ah)
  1950  04F4  120A  118A  2307   	fcall	_send_char
              120A  118A         
  1951                           	line	232
  1952                           	
  1953  04F9                     l3248:	
  1954                           ;PR9B.c: 232: keyin_char[password_count]='4';
  1955  04F9  3034               	movlw	(034h)
  1956  04FA  00FB               	movwf	(??_scancolumn2+0)+0
  1957  04FB  087C               	movf	(_password_count),w
  1958  04FC  3E20               	addlw	_keyin_char&0ffh
  1959  04FD  0084               	movwf	fsr0
  1960  04FE  087B               	movf	(??_scancolumn2+0)+0,w
  1961  04FF  1383               	bcf	status, 7	;select IRP bank0
  1962  0500  0080               	movwf	indf
  1963                           	line	233
  1964                           	
  1965  0501                     l3250:	
  1966                           ;PR9B.c: 233: password_count+=1;
  1967  0501  3001               	movlw	(01h)
  1968  0502  00FB               	movwf	(??_scancolumn2+0)+0
  1969  0503  087B               	movf	(??_scancolumn2+0)+0,w
  1970  0504  07FC               	addwf	(_password_count),f
  1971                           	line	234
  1972                           ;PR9B.c: 234: }
  1973  0505  2D93               	goto	l801
  1974                           	line	235
  1975                           	
  1976  0506                     l778:	
  1977                           ;PR9B.c: 235: else if(RA1==0)
  1978  0506  1885               	btfsc	(41/8),(41)&7
  1979  0507  2D09               	goto	u3041
  1980  0508  2D0A               	goto	u3040
  1981  0509                     u3041:
  1982  0509  2D34               	goto	l784
  1983  050A                     u3040:
  1984  050A  2D0C               	goto	l785
  1985                           	line	237
  1986                           	
  1987  050B                     l3252:	
  1988                           ;PR9B.c: 236: {
  1989                           ;PR9B.c: 237: while(RA1==0)continue;
  1990  050B  2D0C               	goto	l785
  1991                           	
  1992  050C                     l786:	
  1993                           	
  1994  050C                     l785:	
  1995  050C  1C85               	btfss	(41/8),(41)&7
  1996  050D  2D0F               	goto	u3051
  1997  050E  2D10               	goto	u3050
  1998  050F                     u3051:
  1999  050F  2D0C               	goto	l785
  2000  0510                     u3050:
  2001  0510  2D11               	goto	l3254
  2002                           	
  2003  0511                     l787:	
  2004                           	line	238
  2005                           	
  2006  0511                     l3254:	
  2007                           ;PR9B.c: 238: if(password_count==0)lcd_clr();
  2008  0511  08FC               	movf	(_password_count),f
  2009  0512  1D03               	skipz
  2010  0513  2D15               	goto	u3061
  2011  0514  2D16               	goto	u3060
  2012  0515                     u3061:
  2013  0515  2D1B               	goto	l788
  2014  0516                     u3060:
  2015                           	
  2016  0516                     l3256:	
  2017  0516  120A  118A  22DA   	fcall	_lcd_clr
              120A  118A         
  2018                           	
  2019  051B                     l788:	
  2020                           	line	239
  2021                           ;PR9B.c: 239: lcd_goto(password_count);
  2022  051B  087C               	movf	(_password_count),w
  2023  051C  120A  118A  2320   	fcall	_lcd_goto
              120A  118A         
  2024                           	line	240
  2025                           ;PR9B.c: 240: send_char('*');
  2026  0521  302A               	movlw	(02Ah)
  2027  0522  120A  118A  2307   	fcall	_send_char
              120A  118A         
  2028                           	line	241
  2029                           	
  2030  0527                     l3258:	
  2031                           ;PR9B.c: 241: keyin_char[password_count]='5';
  2032  0527  3035               	movlw	(035h)
  2033  0528  00FB               	movwf	(??_scancolumn2+0)+0
  2034  0529  087C               	movf	(_password_count),w
  2035  052A  3E20               	addlw	_keyin_char&0ffh
  2036  052B  0084               	movwf	fsr0
  2037  052C  087B               	movf	(??_scancolumn2+0)+0,w
  2038  052D  1383               	bcf	status, 7	;select IRP bank0
  2039  052E  0080               	movwf	indf
  2040                           	line	242
  2041                           	
  2042  052F                     l3260:	
  2043                           ;PR9B.c: 242: password_count+=1;
  2044  052F  3001               	movlw	(01h)
  2045  0530  00FB               	movwf	(??_scancolumn2+0)+0
  2046  0531  087B               	movf	(??_scancolumn2+0)+0,w
  2047  0532  07FC               	addwf	(_password_count),f
  2048                           	line	243
  2049                           ;PR9B.c: 243: }
  2050  0533  2D93               	goto	l801
  2051                           	line	244
  2052                           	
  2053  0534                     l784:	
  2054                           ;PR9B.c: 244: else if(RA2==0)
  2055  0534  1905               	btfsc	(42/8),(42)&7
  2056  0535  2D37               	goto	u3071
  2057  0536  2D38               	goto	u3070
  2058  0537                     u3071:
  2059  0537  2D62               	goto	l790
  2060  0538                     u3070:
  2061  0538  2D3A               	goto	l791
  2062                           	line	246
  2063                           	
  2064  0539                     l3262:	
  2065                           ;PR9B.c: 245: {
  2066                           ;PR9B.c: 246: while(RA2==0)continue;
  2067  0539  2D3A               	goto	l791
  2068                           	
  2069  053A                     l792:	
  2070                           	
  2071  053A                     l791:	
  2072  053A  1D05               	btfss	(42/8),(42)&7
  2073  053B  2D3D               	goto	u3081
  2074  053C  2D3E               	goto	u3080
  2075  053D                     u3081:
  2076  053D  2D3A               	goto	l791
  2077  053E                     u3080:
  2078  053E  2D3F               	goto	l3264
  2079                           	
  2080  053F                     l793:	
  2081                           	line	247
  2082                           	
  2083  053F                     l3264:	
  2084                           ;PR9B.c: 247: if(password_count==0)lcd_clr();
  2085  053F  08FC               	movf	(_password_count),f
  2086  0540  1D03               	skipz
  2087  0541  2D43               	goto	u3091
  2088  0542  2D44               	goto	u3090
  2089  0543                     u3091:
  2090  0543  2D49               	goto	l794
  2091  0544                     u3090:
  2092                           	
  2093  0544                     l3266:	
  2094  0544  120A  118A  22DA   	fcall	_lcd_clr
              120A  118A         
  2095                           	
  2096  0549                     l794:	
  2097                           	line	248
  2098                           ;PR9B.c: 248: lcd_goto(password_count);
  2099  0549  087C               	movf	(_password_count),w
  2100  054A  120A  118A  2320   	fcall	_lcd_goto
              120A  118A         
  2101                           	line	249
  2102                           ;PR9B.c: 249: send_char('*');
  2103  054F  302A               	movlw	(02Ah)
  2104  0550  120A  118A  2307   	fcall	_send_char
              120A  118A         
  2105                           	line	250
  2106                           	
  2107  0555                     l3268:	
  2108                           ;PR9B.c: 250: keyin_char[password_count]='6';
  2109  0555  3036               	movlw	(036h)
  2110  0556  00FB               	movwf	(??_scancolumn2+0)+0
  2111  0557  087C               	movf	(_password_count),w
  2112  0558  3E20               	addlw	_keyin_char&0ffh
  2113  0559  0084               	movwf	fsr0
  2114  055A  087B               	movf	(??_scancolumn2+0)+0,w
  2115  055B  1383               	bcf	status, 7	;select IRP bank0
  2116  055C  0080               	movwf	indf
  2117                           	line	251
  2118                           	
  2119  055D                     l3270:	
  2120                           ;PR9B.c: 251: password_count+=1;
  2121  055D  3001               	movlw	(01h)
  2122  055E  00FB               	movwf	(??_scancolumn2+0)+0
  2123  055F  087B               	movf	(??_scancolumn2+0)+0,w
  2124  0560  07FC               	addwf	(_password_count),f
  2125                           	line	252
  2126                           ;PR9B.c: 252: }
  2127  0561  2D93               	goto	l801
  2128                           	line	253
  2129                           	
  2130  0562                     l790:	
  2131                           ;PR9B.c: 253: else if(RA3==0)
  2132  0562  1985               	btfsc	(43/8),(43)&7
  2133  0563  2D65               	goto	u3101
  2134  0564  2D66               	goto	u3100
  2135  0565                     u3101:
  2136  0565  2D93               	goto	l801
  2137  0566                     u3100:
  2138  0566  2D68               	goto	l797
  2139                           	line	255
  2140                           	
  2141  0567                     l3272:	
  2142                           ;PR9B.c: 254: {
  2143                           ;PR9B.c: 255: while(RA3==0)continue;
  2144  0567  2D68               	goto	l797
  2145                           	
  2146  0568                     l798:	
  2147                           	
  2148  0568                     l797:	
  2149  0568  1D85               	btfss	(43/8),(43)&7
  2150  0569  2D6B               	goto	u3111
  2151  056A  2D6C               	goto	u3110
  2152  056B                     u3111:
  2153  056B  2D68               	goto	l797
  2154  056C                     u3110:
  2155  056C  2D6D               	goto	l3274
  2156                           	
  2157  056D                     l799:	
  2158                           	line	256
  2159                           	
  2160  056D                     l3274:	
  2161                           ;PR9B.c: 256: if(password_count==0)lcd_clr();
  2162  056D  08FC               	movf	(_password_count),f
  2163  056E  1D03               	skipz
  2164  056F  2D71               	goto	u3121
  2165  0570  2D72               	goto	u3120
  2166  0571                     u3121:
  2167  0571  2D77               	goto	l800
  2168  0572                     u3120:
  2169                           	
  2170  0572                     l3276:	
  2171  0572  120A  118A  22DA   	fcall	_lcd_clr
              120A  118A         
  2172                           	
  2173  0577                     l800:	
  2174                           	line	257
  2175                           ;PR9B.c: 257: lcd_goto(password_count);
  2176  0577  087C               	movf	(_password_count),w
  2177  0578  120A  118A  2320   	fcall	_lcd_goto
              120A  118A         
  2178                           	line	258
  2179                           ;PR9B.c: 258: send_char('*');
  2180  057D  302A               	movlw	(02Ah)
  2181  057E  120A  118A  2307   	fcall	_send_char
              120A  118A         
  2182                           	line	259
  2183                           	
  2184  0583                     l3278:	
  2185                           ;PR9B.c: 259: keyin_char[password_count]='B';
  2186  0583  3042               	movlw	(042h)
  2187  0584  00FB               	movwf	(??_scancolumn2+0)+0
  2188  0585  087C               	movf	(_password_count),w
  2189  0586  3E20               	addlw	_keyin_char&0ffh
  2190  0587  0084               	movwf	fsr0
  2191  0588  087B               	movf	(??_scancolumn2+0)+0,w
  2192  0589  1383               	bcf	status, 7	;select IRP bank0
  2193  058A  0080               	movwf	indf
  2194                           	line	260
  2195                           	
  2196  058B                     l3280:	
  2197                           ;PR9B.c: 260: password_count+=1;
  2198  058B  3001               	movlw	(01h)
  2199  058C  00FB               	movwf	(??_scancolumn2+0)+0
  2200  058D  087B               	movf	(??_scancolumn2+0)+0,w
  2201  058E  07FC               	addwf	(_password_count),f
  2202  058F  2D93               	goto	l801
  2203                           	line	261
  2204                           	
  2205  0590                     l796:	
  2206  0590  2D93               	goto	l801
  2207                           	line	262
  2208                           	
  2209  0591                     l795:	
  2210  0591  2D93               	goto	l801
  2211                           	
  2212  0592                     l789:	
  2213  0592  2D93               	goto	l801
  2214                           	
  2215  0593                     l783:	
  2216                           	
  2217  0593                     l801:	
  2218  0593  0008               	return
  2219                           	opt stack 0
  2220                           GLOBAL	__end_of_scancolumn2
  2221  0594                     	__end_of_scancolumn2:
  2222 ;; =============== function _scancolumn2 ends ============
  2223                           
  2224                           	signat	_scancolumn2,88
  2225                           	global	_scancolumn1
  2226                           psect	text440,local,class=CODE,delta=2
  2227                           global __ptext440
  2228  0418                     __ptext440:
  2229                           
  2230 ;; *************** function _scancolumn1 *****************
  2231 ;; Defined at:
  2232 ;;		line 185 in file "../../Source File/PR9B.c"
  2233 ;; Parameters:    Size  Location     Type
  2234 ;;		None
  2235 ;; Auto vars:     Size  Location     Type
  2236 ;;		None
  2237 ;; Return value:  Size  Location     Type
  2238 ;;		None               void
  2239 ;; Registers used:
  2240 ;;		wreg, fsr0l, fsr0h, status,2, status,0, pclath, cstack
  2241 ;; Tracked objects:
  2242 ;;		On entry : 0/0
  2243 ;;		On exit  : 0/0
  2244 ;;		Unchanged: 0/0
  2245 ;; Data sizes:     COMMON   BANK0   BANK1   BANK3   BANK2
  2246 ;;      Params:         0       0       0       0       0
  2247 ;;      Locals:         0       0       0       0       0
  2248 ;;      Temps:          1       0       0       0       0
  2249 ;;      Totals:         1       0       0       0       0
  2250 ;;Total ram usage:        1 bytes
  2251 ;; Hardware stack levels used:    1
  2252 ;; Hardware stack levels required when called:    4
  2253 ;; This function calls:
  2254 ;;		_lcd_clr
  2255 ;;		_lcd_goto
  2256 ;;		_send_char
  2257 ;; This function is called by:
  2258 ;;		_main
  2259 ;; This function uses a non-reentrant model
  2260 ;;
  2261                           psect	text440
  2262                           	file	"../../Source File/PR9B.c"
  2263                           	line	185
  2264                           	global	__size_of_scancolumn1
  2265  00BE                     	__size_of_scancolumn1	equ	__end_of_scancolumn1-_scancolumn1
  2266                           	
  2267  0418                     _scancolumn1:	
  2268                           	opt	stack 3
  2269                           ; Regs used in _scancolumn1: [wreg-fsr0h+status,2+status,0+pclath+cstack]
  2270                           	line	186
  2271                           	
  2272  0418                     l3198:	
  2273                           ;PR9B.c: 186: if(RA0==0)
  2274  0418  1283               	bcf	status, 5	;RP0=0, select bank0
  2275  0419  1303               	bcf	status, 6	;RP1=0, select bank0
  2276  041A  1805               	btfsc	(40/8),(40)&7
  2277  041B  2C1D               	goto	u2891
  2278  041C  2C1E               	goto	u2890
  2279  041D                     u2891:
  2280  041D  2C48               	goto	l752
  2281  041E                     u2890:
  2282  041E  2C20               	goto	l753
  2283                           	line	188
  2284                           	
  2285  041F                     l3200:	
  2286                           ;PR9B.c: 187: {
  2287                           ;PR9B.c: 188: while(RA0==0)continue;
  2288  041F  2C20               	goto	l753
  2289                           	
  2290  0420                     l754:	
  2291                           	
  2292  0420                     l753:	
  2293  0420  1C05               	btfss	(40/8),(40)&7
  2294  0421  2C23               	goto	u2901
  2295  0422  2C24               	goto	u2900
  2296  0423                     u2901:
  2297  0423  2C20               	goto	l753
  2298  0424                     u2900:
  2299  0424  2C25               	goto	l3202
  2300                           	
  2301  0425                     l755:	
  2302                           	line	189
  2303                           	
  2304  0425                     l3202:	
  2305                           ;PR9B.c: 189: if(password_count==0)lcd_clr();
  2306  0425  08FC               	movf	(_password_count),f
  2307  0426  1D03               	skipz
  2308  0427  2C29               	goto	u2911
  2309  0428  2C2A               	goto	u2910
  2310  0429                     u2911:
  2311  0429  2C2F               	goto	l756
  2312  042A                     u2910:
  2313                           	
  2314  042A                     l3204:	
  2315  042A  120A  118A  22DA   	fcall	_lcd_clr
              120A  118A         
  2316                           	
  2317  042F                     l756:	
  2318                           	line	190
  2319                           ;PR9B.c: 190: lcd_goto(password_count);
  2320  042F  087C               	movf	(_password_count),w
  2321  0430  120A  118A  2320   	fcall	_lcd_goto
              120A  118A         
  2322                           	line	191
  2323                           ;PR9B.c: 191: send_char('*');
  2324  0435  302A               	movlw	(02Ah)
  2325  0436  120A  118A  2307   	fcall	_send_char
              120A  118A         
  2326                           	line	192
  2327                           	
  2328  043B                     l3206:	
  2329                           ;PR9B.c: 192: keyin_char[password_count]='1';
  2330  043B  3031               	movlw	(031h)
  2331  043C  00FB               	movwf	(??_scancolumn1+0)+0
  2332  043D  087C               	movf	(_password_count),w
  2333  043E  3E20               	addlw	_keyin_char&0ffh
  2334  043F  0084               	movwf	fsr0
  2335  0440  087B               	movf	(??_scancolumn1+0)+0,w
  2336  0441  1383               	bcf	status, 7	;select IRP bank0
  2337  0442  0080               	movwf	indf
  2338                           	line	193
  2339                           	
  2340  0443                     l3208:	
  2341                           ;PR9B.c: 193: password_count+=1;
  2342  0443  3001               	movlw	(01h)
  2343  0444  00FB               	movwf	(??_scancolumn1+0)+0
  2344  0445  087B               	movf	(??_scancolumn1+0)+0,w
  2345  0446  07FC               	addwf	(_password_count),f
  2346                           	line	194
  2347                           ;PR9B.c: 194: }
  2348  0447  2CD5               	goto	l775
  2349                           	line	195
  2350                           	
  2351  0448                     l752:	
  2352                           ;PR9B.c: 195: else if(RA1==0)
  2353  0448  1885               	btfsc	(41/8),(41)&7
  2354  0449  2C4B               	goto	u2921
  2355  044A  2C4C               	goto	u2920
  2356  044B                     u2921:
  2357  044B  2C76               	goto	l758
  2358  044C                     u2920:
  2359  044C  2C4E               	goto	l759
  2360                           	line	197
  2361                           	
  2362  044D                     l3210:	
  2363                           ;PR9B.c: 196: {
  2364                           ;PR9B.c: 197: while(RA1==0)continue;
  2365  044D  2C4E               	goto	l759
  2366                           	
  2367  044E                     l760:	
  2368                           	
  2369  044E                     l759:	
  2370  044E  1C85               	btfss	(41/8),(41)&7
  2371  044F  2C51               	goto	u2931
  2372  0450  2C52               	goto	u2930
  2373  0451                     u2931:
  2374  0451  2C4E               	goto	l759
  2375  0452                     u2930:
  2376  0452  2C53               	goto	l3212
  2377                           	
  2378  0453                     l761:	
  2379                           	line	198
  2380                           	
  2381  0453                     l3212:	
  2382                           ;PR9B.c: 198: if(password_count==0)lcd_clr();
  2383  0453  08FC               	movf	(_password_count),f
  2384  0454  1D03               	skipz
  2385  0455  2C57               	goto	u2941
  2386  0456  2C58               	goto	u2940
  2387  0457                     u2941:
  2388  0457  2C5D               	goto	l762
  2389  0458                     u2940:
  2390                           	
  2391  0458                     l3214:	
  2392  0458  120A  118A  22DA   	fcall	_lcd_clr
              120A  118A         
  2393                           	
  2394  045D                     l762:	
  2395                           	line	199
  2396                           ;PR9B.c: 199: lcd_goto(password_count);
  2397  045D  087C               	movf	(_password_count),w
  2398  045E  120A  118A  2320   	fcall	_lcd_goto
              120A  118A         
  2399                           	line	200
  2400                           ;PR9B.c: 200: send_char('*');
  2401  0463  302A               	movlw	(02Ah)
  2402  0464  120A  118A  2307   	fcall	_send_char
              120A  118A         
  2403                           	line	201
  2404                           	
  2405  0469                     l3216:	
  2406                           ;PR9B.c: 201: keyin_char[password_count]='2';
  2407  0469  3032               	movlw	(032h)
  2408  046A  00FB               	movwf	(??_scancolumn1+0)+0
  2409  046B  087C               	movf	(_password_count),w
  2410  046C  3E20               	addlw	_keyin_char&0ffh
  2411  046D  0084               	movwf	fsr0
  2412  046E  087B               	movf	(??_scancolumn1+0)+0,w
  2413  046F  1383               	bcf	status, 7	;select IRP bank0
  2414  0470  0080               	movwf	indf
  2415                           	line	202
  2416                           	
  2417  0471                     l3218:	
  2418                           ;PR9B.c: 202: password_count+=1;
  2419  0471  3001               	movlw	(01h)
  2420  0472  00FB               	movwf	(??_scancolumn1+0)+0
  2421  0473  087B               	movf	(??_scancolumn1+0)+0,w
  2422  0474  07FC               	addwf	(_password_count),f
  2423                           	line	203
  2424                           ;PR9B.c: 203: }
  2425  0475  2CD5               	goto	l775
  2426                           	line	204
  2427                           	
  2428  0476                     l758:	
  2429                           ;PR9B.c: 204: else if(RA2==0)
  2430  0476  1905               	btfsc	(42/8),(42)&7
  2431  0477  2C79               	goto	u2951
  2432  0478  2C7A               	goto	u2950
  2433  0479                     u2951:
  2434  0479  2CA4               	goto	l764
  2435  047A                     u2950:
  2436  047A  2C7C               	goto	l765
  2437                           	line	206
  2438                           	
  2439  047B                     l3220:	
  2440                           ;PR9B.c: 205: {
  2441                           ;PR9B.c: 206: while(RA2==0)continue;
  2442  047B  2C7C               	goto	l765
  2443                           	
  2444  047C                     l766:	
  2445                           	
  2446  047C                     l765:	
  2447  047C  1D05               	btfss	(42/8),(42)&7
  2448  047D  2C7F               	goto	u2961
  2449  047E  2C80               	goto	u2960
  2450  047F                     u2961:
  2451  047F  2C7C               	goto	l765
  2452  0480                     u2960:
  2453  0480  2C81               	goto	l3222
  2454                           	
  2455  0481                     l767:	
  2456                           	line	207
  2457                           	
  2458  0481                     l3222:	
  2459                           ;PR9B.c: 207: if(password_count==0)lcd_clr();
  2460  0481  08FC               	movf	(_password_count),f
  2461  0482  1D03               	skipz
  2462  0483  2C85               	goto	u2971
  2463  0484  2C86               	goto	u2970
  2464  0485                     u2971:
  2465  0485  2C8B               	goto	l768
  2466  0486                     u2970:
  2467                           	
  2468  0486                     l3224:	
  2469  0486  120A  118A  22DA   	fcall	_lcd_clr
              120A  118A         
  2470                           	
  2471  048B                     l768:	
  2472                           	line	208
  2473                           ;PR9B.c: 208: lcd_goto(password_count);
  2474  048B  087C               	movf	(_password_count),w
  2475  048C  120A  118A  2320   	fcall	_lcd_goto
              120A  118A         
  2476                           	line	209
  2477                           ;PR9B.c: 209: send_char('*');
  2478  0491  302A               	movlw	(02Ah)
  2479  0492  120A  118A  2307   	fcall	_send_char
              120A  118A         
  2480                           	line	210
  2481                           	
  2482  0497                     l3226:	
  2483                           ;PR9B.c: 210: keyin_char[password_count]='3';
  2484  0497  3033               	movlw	(033h)
  2485  0498  00FB               	movwf	(??_scancolumn1+0)+0
  2486  0499  087C               	movf	(_password_count),w
  2487  049A  3E20               	addlw	_keyin_char&0ffh
  2488  049B  0084               	movwf	fsr0
  2489  049C  087B               	movf	(??_scancolumn1+0)+0,w
  2490  049D  1383               	bcf	status, 7	;select IRP bank0
  2491  049E  0080               	movwf	indf
  2492                           	line	211
  2493                           	
  2494  049F                     l3228:	
  2495                           ;PR9B.c: 211: password_count+=1;
  2496  049F  3001               	movlw	(01h)
  2497  04A0  00FB               	movwf	(??_scancolumn1+0)+0
  2498  04A1  087B               	movf	(??_scancolumn1+0)+0,w
  2499  04A2  07FC               	addwf	(_password_count),f
  2500                           	line	212
  2501                           ;PR9B.c: 212: }
  2502  04A3  2CD5               	goto	l775
  2503                           	line	213
  2504                           	
  2505  04A4                     l764:	
  2506                           ;PR9B.c: 213: else if(RA3==0)
  2507  04A4  1985               	btfsc	(43/8),(43)&7
  2508  04A5  2CA7               	goto	u2981
  2509  04A6  2CA8               	goto	u2980
  2510  04A7                     u2981:
  2511  04A7  2CD5               	goto	l775
  2512  04A8                     u2980:
  2513  04A8  2CAA               	goto	l771
  2514                           	line	215
  2515                           	
  2516  04A9                     l3230:	
  2517                           ;PR9B.c: 214: {
  2518                           ;PR9B.c: 215: while(RA3==0)continue;
  2519  04A9  2CAA               	goto	l771
  2520                           	
  2521  04AA                     l772:	
  2522                           	
  2523  04AA                     l771:	
  2524  04AA  1D85               	btfss	(43/8),(43)&7
  2525  04AB  2CAD               	goto	u2991
  2526  04AC  2CAE               	goto	u2990
  2527  04AD                     u2991:
  2528  04AD  2CAA               	goto	l771
  2529  04AE                     u2990:
  2530  04AE  2CAF               	goto	l3232
  2531                           	
  2532  04AF                     l773:	
  2533                           	line	216
  2534                           	
  2535  04AF                     l3232:	
  2536                           ;PR9B.c: 216: if(password_count==0)lcd_clr();
  2537  04AF  08FC               	movf	(_password_count),f
  2538  04B0  1D03               	skipz
  2539  04B1  2CB3               	goto	u3001
  2540  04B2  2CB4               	goto	u3000
  2541  04B3                     u3001:
  2542  04B3  2CB9               	goto	l774
  2543  04B4                     u3000:
  2544                           	
  2545  04B4                     l3234:	
  2546  04B4  120A  118A  22DA   	fcall	_lcd_clr
              120A  118A         
  2547                           	
  2548  04B9                     l774:	
  2549                           	line	217
  2550                           ;PR9B.c: 217: lcd_goto(password_count);
  2551  04B9  087C               	movf	(_password_count),w
  2552  04BA  120A  118A  2320   	fcall	_lcd_goto
              120A  118A         
  2553                           	line	218
  2554                           ;PR9B.c: 218: send_char('*');
  2555  04BF  302A               	movlw	(02Ah)
  2556  04C0  120A  118A  2307   	fcall	_send_char
              120A  118A         
  2557                           	line	219
  2558                           	
  2559  04C5                     l3236:	
  2560                           ;PR9B.c: 219: keyin_char[password_count]='A';
  2561  04C5  3041               	movlw	(041h)
  2562  04C6  00FB               	movwf	(??_scancolumn1+0)+0
  2563  04C7  087C               	movf	(_password_count),w
  2564  04C8  3E20               	addlw	_keyin_char&0ffh
  2565  04C9  0084               	movwf	fsr0
  2566  04CA  087B               	movf	(??_scancolumn1+0)+0,w
  2567  04CB  1383               	bcf	status, 7	;select IRP bank0
  2568  04CC  0080               	movwf	indf
  2569                           	line	220
  2570                           	
  2571  04CD                     l3238:	
  2572                           ;PR9B.c: 220: password_count+=1;
  2573  04CD  3001               	movlw	(01h)
  2574  04CE  00FB               	movwf	(??_scancolumn1+0)+0
  2575  04CF  087B               	movf	(??_scancolumn1+0)+0,w
  2576  04D0  07FC               	addwf	(_password_count),f
  2577  04D1  2CD5               	goto	l775
  2578                           	line	221
  2579                           	
  2580  04D2                     l770:	
  2581  04D2  2CD5               	goto	l775
  2582                           	line	222
  2583                           	
  2584  04D3                     l769:	
  2585  04D3  2CD5               	goto	l775
  2586                           	
  2587  04D4                     l763:	
  2588  04D4  2CD5               	goto	l775
  2589                           	
  2590  04D5                     l757:	
  2591                           	
  2592  04D5                     l775:	
  2593  04D5  0008               	return
  2594                           	opt stack 0
  2595                           GLOBAL	__end_of_scancolumn1
  2596  04D6                     	__end_of_scancolumn1:
  2597 ;; =============== function _scancolumn1 ends ============
  2598                           
  2599                           	signat	_scancolumn1,88
  2600                           	global	_send_string
  2601                           psect	text441,local,class=CODE,delta=2
  2602                           global __ptext441
  2603  035E                     __ptext441:
  2604                           
  2605 ;; *************** function _send_string *****************
  2606 ;; Defined at:
  2607 ;;		line 417 in file "../../Source File/PR9B.c"
  2608 ;; Parameters:    Size  Location     Type
  2609 ;;  s               1    wreg     PTR const unsigned char 
  2610 ;;		 -> STR_4(7), STR_3(9), STR_2(17), STR_1(13), 
  2611 ;; Auto vars:     Size  Location     Type
  2612 ;;  s               1   11[COMMON] PTR const unsigned char 
  2613 ;;		 -> STR_4(7), STR_3(9), STR_2(17), STR_1(13), 
  2614 ;;  i               1   10[COMMON] unsigned char 
  2615 ;; Return value:  Size  Location     Type
  2616 ;;		None               void
  2617 ;; Registers used:
  2618 ;;		wreg, fsr0l, fsr0h, status,2, status,0, pclath, cstack
  2619 ;; Tracked objects:
  2620 ;;		On entry : 0/0
  2621 ;;		On exit  : 0/0
  2622 ;;		Unchanged: 0/0
  2623 ;; Data sizes:     COMMON   BANK0   BANK1   BANK3   BANK2
  2624 ;;      Params:         0       0       0       0       0
  2625 ;;      Locals:         2       0       0       0       0
  2626 ;;      Temps:          1       0       0       0       0
  2627 ;;      Totals:         3       0       0       0       0
  2628 ;;Total ram usage:        3 bytes
  2629 ;; Hardware stack levels used:    1
  2630 ;; Hardware stack levels required when called:    3
  2631 ;; This function calls:
  2632 ;;		_send_char
  2633 ;; This function is called by:
  2634 ;;		_main
  2635 ;; This function uses a non-reentrant model
  2636 ;;
  2637                           psect	text441
  2638                           	file	"../../Source File/PR9B.c"
  2639                           	line	417
  2640                           	global	__size_of_send_string
  2641  0027                     	__size_of_send_string	equ	__end_of_send_string-_send_string
  2642                           	
  2643  035E                     _send_string:	
  2644                           	opt	stack 4
  2645                           ; Regs used in _send_string: [wreg-fsr0h+status,2+status,0+pclath+cstack]
  2646                           ;send_string@s stored from wreg
  2647  035E  00FB               	movwf	(send_string@s)
  2648                           	line	418
  2649                           	
  2650  035F                     l3188:	
  2651                           ;PR9B.c: 418: unsigned char i=0;
  2652  035F  01FA               	clrf	(send_string@i)
  2653                           	line	419
  2654                           ;PR9B.c: 419: while (s && *s)send_char (*s++);
  2655  0360  2B72               	goto	l3194
  2656                           	
  2657  0361                     l885:	
  2658                           	
  2659  0361                     l3190:	
  2660  0361  087B               	movf	(send_string@s),w
  2661  0362  0084               	movwf	fsr0
  2662  0363  120A  118A  2003   	fcall	stringdir
              120A  118A         
  2663  0368  120A  118A  2307   	fcall	_send_char
              120A  118A         
  2664                           	
  2665  036D                     l3192:	
  2666  036D  3001               	movlw	(01h)
  2667  036E  00F9               	movwf	(??_send_string+0)+0
  2668  036F  0879               	movf	(??_send_string+0)+0,w
  2669  0370  07FB               	addwf	(send_string@s),f
  2670  0371  2B72               	goto	l3194
  2671                           	
  2672  0372                     l884:	
  2673                           	
  2674  0372                     l3194:	
  2675  0372  087B               	movf	(send_string@s),w
  2676  0373  1D03               	skipz
  2677  0374  2B76               	goto	u2870
  2678  0375  2B84               	goto	l889
  2679  0376                     u2870:
  2680                           	
  2681  0376                     l3196:	
  2682  0376  087B               	movf	(send_string@s),w
  2683  0377  0084               	movwf	fsr0
  2684  0378  120A  118A  2003   	fcall	stringdir
              120A  118A         
  2685  037D  3800               	iorlw	0
  2686  037E  1D03               	skipz
  2687  037F  2B81               	goto	u2881
  2688  0380  2B82               	goto	u2880
  2689  0381                     u2881:
  2690  0381  2B61               	goto	l3190
  2691  0382                     u2880:
  2692  0382  2B84               	goto	l889
  2693                           	
  2694  0383                     l887:	
  2695  0383  2B84               	goto	l889
  2696                           	
  2697  0384                     l888:	
  2698                           	line	421
  2699                           	
  2700  0384                     l889:	
  2701  0384  0008               	return
  2702                           	opt stack 0
  2703                           GLOBAL	__end_of_send_string
  2704  0385                     	__end_of_send_string:
  2705 ;; =============== function _send_string ends ============
  2706                           
  2707                           	signat	_send_string,4216
  2708                           	global	_lcd_goto
  2709                           psect	text442,local,class=CODE,delta=2
  2710                           global __ptext442
  2711  0320                     __ptext442:
  2712                           
  2713 ;; *************** function _lcd_goto *****************
  2714 ;; Defined at:
  2715 ;;		line 398 in file "../../Source File/PR9B.c"
  2716 ;; Parameters:    Size  Location     Type
  2717 ;;  data            1    wreg     unsigned char 
  2718 ;; Auto vars:     Size  Location     Type
  2719 ;;  data            1   10[COMMON] unsigned char 
  2720 ;; Return value:  Size  Location     Type
  2721 ;;		None               void
  2722 ;; Registers used:
  2723 ;;		wreg, status,2, status,0, pclath, cstack
  2724 ;; Tracked objects:
  2725 ;;		On entry : 0/0
  2726 ;;		On exit  : 0/0
  2727 ;;		Unchanged: 0/0
  2728 ;; Data sizes:     COMMON   BANK0   BANK1   BANK3   BANK2
  2729 ;;      Params:         0       0       0       0       0
  2730 ;;      Locals:         1       0       0       0       0
  2731 ;;      Temps:          1       0       0       0       0
  2732 ;;      Totals:         2       0       0       0       0
  2733 ;;Total ram usage:        2 bytes
  2734 ;; Hardware stack levels used:    1
  2735 ;; Hardware stack levels required when called:    3
  2736 ;; This function calls:
  2737 ;;		_send_config
  2738 ;; This function is called by:
  2739 ;;		_main
  2740 ;;		_scancolumn1
  2741 ;;		_scancolumn2
  2742 ;;		_scancolumn3
  2743 ;;		_scancolumn4
  2744 ;; This function uses a non-reentrant model
  2745 ;;
  2746                           psect	text442
  2747                           	file	"../../Source File/PR9B.c"
  2748                           	line	398
  2749                           	global	__size_of_lcd_goto
  2750  001D                     	__size_of_lcd_goto	equ	__end_of_lcd_goto-_lcd_goto
  2751                           	
  2752  0320                     _lcd_goto:	
  2753                           	opt	stack 3
  2754                           ; Regs used in _lcd_goto: [wreg+status,2+status,0+pclath+cstack]
  2755                           ;lcd_goto@data stored from wreg
  2756  0320  00FA               	movwf	(lcd_goto@data)
  2757                           	line	399
  2758                           	
  2759  0321                     l3180:	
  2760                           ;PR9B.c: 399: if(data<16)
  2761  0321  3010               	movlw	(010h)
  2762  0322  027A               	subwf	(lcd_goto@data),w
  2763  0323  1803               	skipnc
  2764  0324  2B26               	goto	u2861
  2765  0325  2B27               	goto	u2860
  2766  0326                     u2861:
  2767  0326  2B2F               	goto	l3184
  2768  0327                     u2860:
  2769                           	line	401
  2770                           	
  2771  0327                     l3182:	
  2772                           ;PR9B.c: 400: {
  2773                           ;PR9B.c: 401: send_config(0x80+data);
  2774  0327  087A               	movf	(lcd_goto@data),w
  2775  0328  3E80               	addlw	080h
  2776  0329  120A  118A  22EE   	fcall	_send_config
              120A  118A         
  2777                           	line	402
  2778                           ;PR9B.c: 402: }
  2779  032E  2B3C               	goto	l878
  2780                           	line	403
  2781                           	
  2782  032F                     l876:	
  2783                           	line	405
  2784                           	
  2785  032F                     l3184:	
  2786                           ;PR9B.c: 403: else
  2787                           ;PR9B.c: 404: {
  2788                           ;PR9B.c: 405: data=data-20;
  2789  032F  087A               	movf	(lcd_goto@data),w
  2790  0330  3EEC               	addlw	0ECh
  2791  0331  00F9               	movwf	(??_lcd_goto+0)+0
  2792  0332  0879               	movf	(??_lcd_goto+0)+0,w
  2793  0333  00FA               	movwf	(lcd_goto@data)
  2794                           	line	406
  2795                           	
  2796  0334                     l3186:	
  2797                           ;PR9B.c: 406: send_config(0xc0+data);
  2798  0334  087A               	movf	(lcd_goto@data),w
  2799  0335  3EC0               	addlw	0C0h
  2800  0336  120A  118A  22EE   	fcall	_send_config
              120A  118A         
  2801  033B  2B3C               	goto	l878
  2802                           	line	407
  2803                           	
  2804  033C                     l877:	
  2805                           	line	408
  2806                           	
  2807  033C                     l878:	
  2808  033C  0008               	return
  2809                           	opt stack 0
  2810                           GLOBAL	__end_of_lcd_goto
  2811  033D                     	__end_of_lcd_goto:
  2812 ;; =============== function _lcd_goto ends ============
  2813                           
  2814                           	signat	_lcd_goto,4216
  2815                           	global	_lcd_clr
  2816                           psect	text443,local,class=CODE,delta=2
  2817                           global __ptext443
  2818  02DA                     __ptext443:
  2819                           
  2820 ;; *************** function _lcd_clr *****************
  2821 ;; Defined at:
  2822 ;;		line 411 in file "../../Source File/PR9B.c"
  2823 ;; Parameters:    Size  Location     Type
  2824 ;;		None
  2825 ;; Auto vars:     Size  Location     Type
  2826 ;;		None
  2827 ;; Return value:  Size  Location     Type
  2828 ;;		None               void
  2829 ;; Registers used:
  2830 ;;		wreg, status,2, status,0, pclath, cstack
  2831 ;; Tracked objects:
  2832 ;;		On entry : 0/0
  2833 ;;		On exit  : 0/0
  2834 ;;		Unchanged: 0/0
  2835 ;; Data sizes:     COMMON   BANK0   BANK1   BANK3   BANK2
  2836 ;;      Params:         0       0       0       0       0
  2837 ;;      Locals:         0       0       0       0       0
  2838 ;;      Temps:          0       0       0       0       0
  2839 ;;      Totals:         0       0       0       0       0
  2840 ;;Total ram usage:        0 bytes
  2841 ;; Hardware stack levels used:    1
  2842 ;; Hardware stack levels required when called:    3
  2843 ;; This function calls:
  2844 ;;		_send_config
  2845 ;;		_delay
  2846 ;; This function is called by:
  2847 ;;		_main
  2848 ;;		_scancolumn1
  2849 ;;		_scancolumn2
  2850 ;;		_scancolumn3
  2851 ;;		_scancolumn4
  2852 ;; This function uses a non-reentrant model
  2853 ;;
  2854                           psect	text443
  2855                           	file	"../../Source File/PR9B.c"
  2856                           	line	411
  2857                           	global	__size_of_lcd_clr
  2858  0014                     	__size_of_lcd_clr	equ	__end_of_lcd_clr-_lcd_clr
  2859                           	
  2860  02DA                     _lcd_clr:	
  2861                           	opt	stack 3
  2862                           ; Regs used in _lcd_clr: [wreg+status,2+status,0+pclath+cstack]
  2863                           	line	412
  2864                           	
  2865  02DA                     l3178:	
  2866                           ;PR9B.c: 412: send_config(0x01);
  2867  02DA  3001               	movlw	(01h)
  2868  02DB  120A  118A  22EE   	fcall	_send_config
              120A  118A         
  2869                           	line	413
  2870                           ;PR9B.c: 413: delay(50);
  2871  02E0  3000               	movlw	0
  2872  02E1  00F3               	movwf	(?_delay+3)
  2873  02E2  3000               	movlw	0
  2874  02E3  00F2               	movwf	(?_delay+2)
  2875  02E4  3000               	movlw	0
  2876  02E5  00F1               	movwf	(?_delay+1)
  2877  02E6  3032               	movlw	032h
  2878  02E7  00F0               	movwf	(?_delay)
  2879                           
  2880  02E8  120A  118A  23B4   	fcall	_delay
              120A  118A         
  2881                           	line	414
  2882                           	
  2883  02ED                     l881:	
  2884  02ED  0008               	return
  2885                           	opt stack 0
  2886                           GLOBAL	__end_of_lcd_clr
  2887  02EE                     	__end_of_lcd_clr:
  2888 ;; =============== function _lcd_clr ends ============
  2889                           
  2890                           	signat	_lcd_clr,88
  2891                           	global	_send_char
  2892                           psect	text444,local,class=CODE,delta=2
  2893                           global __ptext444
  2894  0307                     __ptext444:
  2895                           
  2896 ;; *************** function _send_char *****************
  2897 ;; Defined at:
  2898 ;;		line 382 in file "../../Source File/PR9B.c"
  2899 ;; Parameters:    Size  Location     Type
  2900 ;;  data            1    wreg     unsigned char 
  2901 ;; Auto vars:     Size  Location     Type
  2902 ;;  data            1    8[COMMON] unsigned char 
  2903 ;; Return value:  Size  Location     Type
  2904 ;;		None               void
  2905 ;; Registers used:
  2906 ;;		wreg, status,2, status,0, pclath, cstack
  2907 ;; Tracked objects:
  2908 ;;		On entry : 0/0
  2909 ;;		On exit  : 0/0
  2910 ;;		Unchanged: 0/0
  2911 ;; Data sizes:     COMMON   BANK0   BANK1   BANK3   BANK2
  2912 ;;      Params:         0       0       0       0       0
  2913 ;;      Locals:         1       0       0       0       0
  2914 ;;      Temps:          0       0       0       0       0
  2915 ;;      Totals:         1       0       0       0       0
  2916 ;;Total ram usage:        1 bytes
  2917 ;; Hardware stack levels used:    1
  2918 ;; Hardware stack levels required when called:    2
  2919 ;; This function calls:
  2920 ;;		_delay
  2921 ;;		_e_pulse
  2922 ;; This function is called by:
  2923 ;;		_scancolumn1
  2924 ;;		_scancolumn2
  2925 ;;		_scancolumn3
  2926 ;;		_scancolumn4
  2927 ;;		_send_string
  2928 ;; This function uses a non-reentrant model
  2929 ;;
  2930                           psect	text444
  2931                           	file	"../../Source File/PR9B.c"
  2932                           	line	382
  2933                           	global	__size_of_send_char
  2934  0019                     	__size_of_send_char	equ	__end_of_send_char-_send_char
  2935                           	
  2936  0307                     _send_char:	
  2937                           	opt	stack 4
  2938                           ; Regs used in _send_char: [wreg+status,2+status,0+pclath+cstack]
  2939                           ;send_char@data stored from wreg
  2940  0307  00F8               	movwf	(send_char@data)
  2941                           	line	383
  2942                           	
  2943  0308                     l3170:	
  2944                           ;PR9B.c: 383: RC0=1;
  2945  0308  1283               	bcf	status, 5	;RP0=0, select bank0
  2946  0309  1303               	bcf	status, 6	;RP1=0, select bank0
  2947  030A  1407               	bsf	(56/8),(56)&7
  2948                           	line	384
  2949                           	
  2950  030B                     l3172:	
  2951                           ;PR9B.c: 384: PORTD=data;
  2952  030B  0878               	movf	(send_char@data),w
  2953  030C  0088               	movwf	(8)	;volatile
  2954                           	line	385
  2955                           	
  2956  030D                     l3174:	
  2957                           ;PR9B.c: 385: delay(50);
  2958  030D  3000               	movlw	0
  2959  030E  00F3               	movwf	(?_delay+3)
  2960  030F  3000               	movlw	0
  2961  0310  00F2               	movwf	(?_delay+2)
  2962  0311  3000               	movlw	0
  2963  0312  00F1               	movwf	(?_delay+1)
  2964  0313  3032               	movlw	032h
  2965  0314  00F0               	movwf	(?_delay)
  2966                           
  2967  0315  120A  118A  23B4   	fcall	_delay
              120A  118A         
  2968                           	line	386
  2969                           	
  2970  031A                     l3176:	
  2971                           ;PR9B.c: 386: e_pulse();
  2972  031A  120A  118A  233D   	fcall	_e_pulse
              120A  118A         
  2973                           	line	387
  2974                           	
  2975  031F                     l870:	
  2976  031F  0008               	return
  2977                           	opt stack 0
  2978                           GLOBAL	__end_of_send_char
  2979  0320                     	__end_of_send_char:
  2980 ;; =============== function _send_char ends ============
  2981                           
  2982                           	signat	_send_char,4216
  2983                           	global	_send_config
  2984                           psect	text445,local,class=CODE,delta=2
  2985                           global __ptext445
  2986  02EE                     __ptext445:
  2987                           
  2988 ;; *************** function _send_config *****************
  2989 ;; Defined at:
  2990 ;;		line 374 in file "../../Source File/PR9B.c"
  2991 ;; Parameters:    Size  Location     Type
  2992 ;;  data            1    wreg     unsigned char 
  2993 ;; Auto vars:     Size  Location     Type
  2994 ;;  data            1    8[COMMON] unsigned char 
  2995 ;; Return value:  Size  Location     Type
  2996 ;;		None               void
  2997 ;; Registers used:
  2998 ;;		wreg, status,2, status,0, pclath, cstack
  2999 ;; Tracked objects:
  3000 ;;		On entry : 0/0
  3001 ;;		On exit  : 0/0
  3002 ;;		Unchanged: 0/0
  3003 ;; Data sizes:     COMMON   BANK0   BANK1   BANK3   BANK2
  3004 ;;      Params:         0       0       0       0       0
  3005 ;;      Locals:         1       0       0       0       0
  3006 ;;      Temps:          0       0       0       0       0
  3007 ;;      Totals:         1       0       0       0       0
  3008 ;;Total ram usage:        1 bytes
  3009 ;; Hardware stack levels used:    1
  3010 ;; Hardware stack levels required when called:    2
  3011 ;; This function calls:
  3012 ;;		_delay
  3013 ;;		_e_pulse
  3014 ;; This function is called by:
  3015 ;;		_main
  3016 ;;		_lcd_goto
  3017 ;;		_lcd_clr
  3018 ;; This function uses a non-reentrant model
  3019 ;;
  3020                           psect	text445
  3021                           	file	"../../Source File/PR9B.c"
  3022                           	line	374
  3023                           	global	__size_of_send_config
  3024  0019                     	__size_of_send_config	equ	__end_of_send_config-_send_config
  3025                           	
  3026  02EE                     _send_config:	
  3027                           	opt	stack 3
  3028                           ; Regs used in _send_config: [wreg+status,2+status,0+pclath+cstack]
  3029                           ;send_config@data stored from wreg
  3030  02EE  00F8               	movwf	(send_config@data)
  3031                           	line	375
  3032                           	
  3033  02EF                     l3162:	
  3034                           ;PR9B.c: 375: RC0=0;
  3035  02EF  1283               	bcf	status, 5	;RP0=0, select bank0
  3036  02F0  1303               	bcf	status, 6	;RP1=0, select bank0
  3037  02F1  1007               	bcf	(56/8),(56)&7
  3038                           	line	376
  3039                           	
  3040  02F2                     l3164:	
  3041                           ;PR9B.c: 376: PORTD=data;
  3042  02F2  0878               	movf	(send_config@data),w
  3043  02F3  0088               	movwf	(8)	;volatile
  3044                           	line	377
  3045                           	
  3046  02F4                     l3166:	
  3047                           ;PR9B.c: 377: delay(50);
  3048  02F4  3000               	movlw	0
  3049  02F5  00F3               	movwf	(?_delay+3)
  3050  02F6  3000               	movlw	0
  3051  02F7  00F2               	movwf	(?_delay+2)
  3052  02F8  3000               	movlw	0
  3053  02F9  00F1               	movwf	(?_delay+1)
  3054  02FA  3032               	movlw	032h
  3055  02FB  00F0               	movwf	(?_delay)
  3056                           
  3057  02FC  120A  118A  23B4   	fcall	_delay
              120A  118A         
  3058                           	line	378
  3059                           	
  3060  0301                     l3168:	
  3061                           ;PR9B.c: 378: e_pulse();
  3062  0301  120A  118A  233D   	fcall	_e_pulse
              120A  118A         
  3063                           	line	379
  3064                           	
  3065  0306                     l867:	
  3066  0306  0008               	return
  3067                           	opt stack 0
  3068                           GLOBAL	__end_of_send_config
  3069  0307                     	__end_of_send_config:
  3070 ;; =============== function _send_config ends ============
  3071                           
  3072                           	signat	_send_config,4216
  3073                           	global	_e_pulse
  3074                           psect	text446,local,class=CODE,delta=2
  3075                           global __ptext446
  3076  033D                     __ptext446:
  3077                           
  3078 ;; *************** function _e_pulse *****************
  3079 ;; Defined at:
  3080 ;;		line 390 in file "../../Source File/PR9B.c"
  3081 ;; Parameters:    Size  Location     Type
  3082 ;;		None
  3083 ;; Auto vars:     Size  Location     Type
  3084 ;;		None
  3085 ;; Return value:  Size  Location     Type
  3086 ;;		None               void
  3087 ;; Registers used:
  3088 ;;		wreg, status,2, status,0, pclath, cstack
  3089 ;; Tracked objects:
  3090 ;;		On entry : 0/0
  3091 ;;		On exit  : 0/0
  3092 ;;		Unchanged: 0/0
  3093 ;; Data sizes:     COMMON   BANK0   BANK1   BANK3   BANK2
  3094 ;;      Params:         0       0       0       0       0
  3095 ;;      Locals:         0       0       0       0       0
  3096 ;;      Temps:          0       0       0       0       0
  3097 ;;      Totals:         0       0       0       0       0
  3098 ;;Total ram usage:        0 bytes
  3099 ;; Hardware stack levels used:    1
  3100 ;; Hardware stack levels required when called:    1
  3101 ;; This function calls:
  3102 ;;		_delay
  3103 ;; This function is called by:
  3104 ;;		_send_config
  3105 ;;		_send_char
  3106 ;; This function uses a non-reentrant model
  3107 ;;
  3108                           psect	text446
  3109                           	file	"../../Source File/PR9B.c"
  3110                           	line	390
  3111                           	global	__size_of_e_pulse
  3112  0021                     	__size_of_e_pulse	equ	__end_of_e_pulse-_e_pulse
  3113                           	
  3114  033D                     _e_pulse:	
  3115                           	opt	stack 4
  3116                           ; Regs used in _e_pulse: [wreg+status,2+status,0+pclath+cstack]
  3117                           	line	391
  3118                           	
  3119  033D                     l3156:	
  3120                           ;PR9B.c: 391: RC1=1;
  3121  033D  1283               	bcf	status, 5	;RP0=0, select bank0
  3122  033E  1303               	bcf	status, 6	;RP1=0, select bank0
  3123  033F  1487               	bsf	(57/8),(57)&7
  3124                           	line	392
  3125                           	
  3126  0340                     l3158:	
  3127                           ;PR9B.c: 392: delay(50);
  3128  0340  3000               	movlw	0
  3129  0341  00F3               	movwf	(?_delay+3)
  3130  0342  3000               	movlw	0
  3131  0343  00F2               	movwf	(?_delay+2)
  3132  0344  3000               	movlw	0
  3133  0345  00F1               	movwf	(?_delay+1)
  3134  0346  3032               	movlw	032h
  3135  0347  00F0               	movwf	(?_delay)
  3136                           
  3137  0348  120A  118A  23B4   	fcall	_delay
              120A  118A         
  3138                           	line	393
  3139                           	
  3140  034D                     l3160:	
  3141                           ;PR9B.c: 393: RC1=0;
  3142  034D  1283               	bcf	status, 5	;RP0=0, select bank0
  3143  034E  1303               	bcf	status, 6	;RP1=0, select bank0
  3144  034F  1087               	bcf	(57/8),(57)&7
  3145                           	line	394
  3146                           ;PR9B.c: 394: delay(50);
  3147  0350  3000               	movlw	0
  3148  0351  00F3               	movwf	(?_delay+3)
  3149  0352  3000               	movlw	0
  3150  0353  00F2               	movwf	(?_delay+2)
  3151  0354  3000               	movlw	0
  3152  0355  00F1               	movwf	(?_delay+1)
  3153  0356  3032               	movlw	032h
  3154  0357  00F0               	movwf	(?_delay)
  3155                           
  3156  0358  120A  118A  23B4   	fcall	_delay
              120A  118A         
  3157                           	line	395
  3158                           	
  3159  035D                     l873:	
  3160  035D  0008               	return
  3161                           	opt stack 0
  3162                           GLOBAL	__end_of_e_pulse
  3163  035E                     	__end_of_e_pulse:
  3164 ;; =============== function _e_pulse ends ============
  3165                           
  3166                           	signat	_e_pulse,88
  3167                           	global	_beep_twice
  3168                           psect	text447,local,class=CODE,delta=2
  3169                           global __ptext447
  3170  03E4                     __ptext447:
  3171                           
  3172 ;; *************** function _beep_twice *****************
  3173 ;; Defined at:
  3174 ;;		line 360 in file "../../Source File/PR9B.c"
  3175 ;; Parameters:    Size  Location     Type
  3176 ;;		None
  3177 ;; Auto vars:     Size  Location     Type
  3178 ;;		None
  3179 ;; Return value:  Size  Location     Type
  3180 ;;		None               void
  3181 ;; Registers used:
  3182 ;;		wreg, status,2, status,0, pclath, cstack
  3183 ;; Tracked objects:
  3184 ;;		On entry : 0/0
  3185 ;;		On exit  : 0/0
  3186 ;;		Unchanged: 0/0
  3187 ;; Data sizes:     COMMON   BANK0   BANK1   BANK3   BANK2
  3188 ;;      Params:         0       0       0       0       0
  3189 ;;      Locals:         0       0       0       0       0
  3190 ;;      Temps:          0       0       0       0       0
  3191 ;;      Totals:         0       0       0       0       0
  3192 ;;Total ram usage:        0 bytes
  3193 ;; Hardware stack levels used:    1
  3194 ;; Hardware stack levels required when called:    1
  3195 ;; This function calls:
  3196 ;;		_delay
  3197 ;; This function is called by:
  3198 ;;		_main
  3199 ;; This function uses a non-reentrant model
  3200 ;;
  3201                           psect	text447
  3202                           	file	"../../Source File/PR9B.c"
  3203                           	line	360
  3204                           	global	__size_of_beep_twice
  3205  0034                     	__size_of_beep_twice	equ	__end_of_beep_twice-_beep_twice
  3206                           	
  3207  03E4                     _beep_twice:	
  3208                           	opt	stack 6
  3209                           ; Regs used in _beep_twice: [wreg+status,2+status,0+pclath+cstack]
  3210                           	line	361
  3211                           	
  3212  03E4                     l3146:	
  3213                           ;PR9B.c: 361: RB2=1;
  3214  03E4  1283               	bcf	status, 5	;RP0=0, select bank0
  3215  03E5  1303               	bcf	status, 6	;RP1=0, select bank0
  3216  03E6  1506               	bsf	(50/8),(50)&7
  3217                           	line	362
  3218                           	
  3219  03E7                     l3148:	
  3220                           ;PR9B.c: 362: delay(8000);
  3221  03E7  3000               	movlw	0
  3222  03E8  00F3               	movwf	(?_delay+3)
  3223  03E9  3000               	movlw	0
  3224  03EA  00F2               	movwf	(?_delay+2)
  3225  03EB  301F               	movlw	01Fh
  3226  03EC  00F1               	movwf	(?_delay+1)
  3227  03ED  3040               	movlw	040h
  3228  03EE  00F0               	movwf	(?_delay)
  3229                           
  3230  03EF  120A  118A  23B4   	fcall	_delay
              120A  118A         
  3231                           	line	363
  3232                           	
  3233  03F4                     l3150:	
  3234                           ;PR9B.c: 363: RB2=0;
  3235  03F4  1283               	bcf	status, 5	;RP0=0, select bank0
  3236  03F5  1303               	bcf	status, 6	;RP1=0, select bank0
  3237  03F6  1106               	bcf	(50/8),(50)&7
  3238                           	line	364
  3239                           ;PR9B.c: 364: delay(13000);
  3240  03F7  3000               	movlw	0
  3241  03F8  00F3               	movwf	(?_delay+3)
  3242  03F9  3000               	movlw	0
  3243  03FA  00F2               	movwf	(?_delay+2)
  3244  03FB  3032               	movlw	032h
  3245  03FC  00F1               	movwf	(?_delay+1)
  3246  03FD  30C8               	movlw	0C8h
  3247  03FE  00F0               	movwf	(?_delay)
  3248                           
  3249  03FF  120A  118A  23B4   	fcall	_delay
              120A  118A         
  3250                           	line	365
  3251                           	
  3252  0404                     l3152:	
  3253                           ;PR9B.c: 365: RB2=1;
  3254  0404  1283               	bcf	status, 5	;RP0=0, select bank0
  3255  0405  1303               	bcf	status, 6	;RP1=0, select bank0
  3256  0406  1506               	bsf	(50/8),(50)&7
  3257                           	line	366
  3258                           ;PR9B.c: 366: delay(8000);
  3259  0407  3000               	movlw	0
  3260  0408  00F3               	movwf	(?_delay+3)
  3261  0409  3000               	movlw	0
  3262  040A  00F2               	movwf	(?_delay+2)
  3263  040B  301F               	movlw	01Fh
  3264  040C  00F1               	movwf	(?_delay+1)
  3265  040D  3040               	movlw	040h
  3266  040E  00F0               	movwf	(?_delay)
  3267                           
  3268  040F  120A  118A  23B4   	fcall	_delay
              120A  118A         
  3269                           	line	367
  3270                           	
  3271  0414                     l3154:	
  3272                           ;PR9B.c: 367: RB2=0;
  3273  0414  1283               	bcf	status, 5	;RP0=0, select bank0
  3274  0415  1303               	bcf	status, 6	;RP1=0, select bank0
  3275  0416  1106               	bcf	(50/8),(50)&7
  3276                           	line	368
  3277                           	
  3278  0417                     l864:	
  3279  0417  0008               	return
  3280                           	opt stack 0
  3281                           GLOBAL	__end_of_beep_twice
  3282  0418                     	__end_of_beep_twice:
  3283 ;; =============== function _beep_twice ends ============
  3284                           
  3285                           	signat	_beep_twice,88
  3286                           	global	_beep_once
  3287                           psect	text448,local,class=CODE,delta=2
  3288                           global __ptext448
  3289  02C6                     __ptext448:
  3290                           
  3291 ;; *************** function _beep_once *****************
  3292 ;; Defined at:
  3293 ;;		line 353 in file "../../Source File/PR9B.c"
  3294 ;; Parameters:    Size  Location     Type
  3295 ;;		None
  3296 ;; Auto vars:     Size  Location     Type
  3297 ;;		None
  3298 ;; Return value:  Size  Location     Type
  3299 ;;		None               void
  3300 ;; Registers used:
  3301 ;;		wreg, status,2, status,0, pclath, cstack
  3302 ;; Tracked objects:
  3303 ;;		On entry : 0/0
  3304 ;;		On exit  : 0/0
  3305 ;;		Unchanged: 0/0
  3306 ;; Data sizes:     COMMON   BANK0   BANK1   BANK3   BANK2
  3307 ;;      Params:         0       0       0       0       0
  3308 ;;      Locals:         0       0       0       0       0
  3309 ;;      Temps:          0       0       0       0       0
  3310 ;;      Totals:         0       0       0       0       0
  3311 ;;Total ram usage:        0 bytes
  3312 ;; Hardware stack levels used:    1
  3313 ;; Hardware stack levels required when called:    1
  3314 ;; This function calls:
  3315 ;;		_delay
  3316 ;; This function is called by:
  3317 ;;		_main
  3318 ;; This function uses a non-reentrant model
  3319 ;;
  3320                           psect	text448
  3321                           	file	"../../Source File/PR9B.c"
  3322                           	line	353
  3323                           	global	__size_of_beep_once
  3324  0014                     	__size_of_beep_once	equ	__end_of_beep_once-_beep_once
  3325                           	
  3326  02C6                     _beep_once:	
  3327                           	opt	stack 6
  3328                           ; Regs used in _beep_once: [wreg+status,2+status,0+pclath+cstack]
  3329                           	line	354
  3330                           	
  3331  02C6                     l3140:	
  3332                           ;PR9B.c: 354: RB2=1;
  3333  02C6  1283               	bcf	status, 5	;RP0=0, select bank0
  3334  02C7  1303               	bcf	status, 6	;RP1=0, select bank0
  3335  02C8  1506               	bsf	(50/8),(50)&7
  3336                           	line	355
  3337                           	
  3338  02C9                     l3142:	
  3339                           ;PR9B.c: 355: delay(8000);
  3340  02C9  3000               	movlw	0
  3341  02CA  00F3               	movwf	(?_delay+3)
  3342  02CB  3000               	movlw	0
  3343  02CC  00F2               	movwf	(?_delay+2)
  3344  02CD  301F               	movlw	01Fh
  3345  02CE  00F1               	movwf	(?_delay+1)
  3346  02CF  3040               	movlw	040h
  3347  02D0  00F0               	movwf	(?_delay)
  3348                           
  3349  02D1  120A  118A  23B4   	fcall	_delay
              120A  118A         
  3350                           	line	356
  3351                           	
  3352  02D6                     l3144:	
  3353                           ;PR9B.c: 356: RB2=0;
  3354  02D6  1283               	bcf	status, 5	;RP0=0, select bank0
  3355  02D7  1303               	bcf	status, 6	;RP1=0, select bank0
  3356  02D8  1106               	bcf	(50/8),(50)&7
  3357                           	line	357
  3358                           	
  3359  02D9                     l861:	
  3360  02D9  0008               	return
  3361                           	opt stack 0
  3362                           GLOBAL	__end_of_beep_once
  3363  02DA                     	__end_of_beep_once:
  3364 ;; =============== function _beep_once ends ============
  3365                           
  3366                           	signat	_beep_once,88
  3367                           	global	_clearrow4
  3368                           psect	text449,local,class=CODE,delta=2
  3369                           global __ptext449
  3370  02BF                     __ptext449:
  3371                           
  3372 ;; *************** function _clearrow4 *****************
  3373 ;; Defined at:
  3374 ;;		line 177 in file "../../Source File/PR9B.c"
  3375 ;; Parameters:    Size  Location     Type
  3376 ;;		None
  3377 ;; Auto vars:     Size  Location     Type
  3378 ;;		None
  3379 ;; Return value:  Size  Location     Type
  3380 ;;		None               void
  3381 ;; Registers used:
  3382 ;;		None
  3383 ;; Tracked objects:
  3384 ;;		On entry : 0/0
  3385 ;;		On exit  : 0/0
  3386 ;;		Unchanged: 0/0
  3387 ;; Data sizes:     COMMON   BANK0   BANK1   BANK3   BANK2
  3388 ;;      Params:         0       0       0       0       0
  3389 ;;      Locals:         0       0       0       0       0
  3390 ;;      Temps:          0       0       0       0       0
  3391 ;;      Totals:         0       0       0       0       0
  3392 ;;Total ram usage:        0 bytes
  3393 ;; Hardware stack levels used:    1
  3394 ;; This function calls:
  3395 ;;		Nothing
  3396 ;; This function is called by:
  3397 ;;		_main
  3398 ;; This function uses a non-reentrant model
  3399 ;;
  3400                           psect	text449
  3401                           	file	"../../Source File/PR9B.c"
  3402                           	line	177
  3403                           	global	__size_of_clearrow4
  3404  0007                     	__size_of_clearrow4	equ	__end_of_clearrow4-_clearrow4
  3405                           	
  3406  02BF                     _clearrow4:	
  3407                           	opt	stack 7
  3408                           ; Regs used in _clearrow4: []
  3409                           	line	178
  3410                           	
  3411  02BF                     l3138:	
  3412                           ;PR9B.c: 178: RE1=1;
  3413  02BF  1283               	bcf	status, 5	;RP0=0, select bank0
  3414  02C0  1303               	bcf	status, 6	;RP1=0, select bank0
  3415  02C1  1489               	bsf	(73/8),(73)&7
  3416                           	line	179
  3417                           ;PR9B.c: 179: RE0=1;
  3418  02C2  1409               	bsf	(72/8),(72)&7
  3419                           	line	180
  3420                           ;PR9B.c: 180: RA5=1;
  3421  02C3  1685               	bsf	(45/8),(45)&7
  3422                           	line	181
  3423                           ;PR9B.c: 181: RA4=0;
  3424  02C4  1205               	bcf	(44/8),(44)&7
  3425                           	line	182
  3426                           	
  3427  02C5                     l749:	
  3428  02C5  0008               	return
  3429                           	opt stack 0
  3430                           GLOBAL	__end_of_clearrow4
  3431  02C6                     	__end_of_clearrow4:
  3432 ;; =============== function _clearrow4 ends ============
  3433                           
  3434                           	signat	_clearrow4,88
  3435                           	global	_clearrow3
  3436                           psect	text450,local,class=CODE,delta=2
  3437                           global __ptext450
  3438  02B8                     __ptext450:
  3439                           
  3440 ;; *************** function _clearrow3 *****************
  3441 ;; Defined at:
  3442 ;;		line 169 in file "../../Source File/PR9B.c"
  3443 ;; Parameters:    Size  Location     Type
  3444 ;;		None
  3445 ;; Auto vars:     Size  Location     Type
  3446 ;;		None
  3447 ;; Return value:  Size  Location     Type
  3448 ;;		None               void
  3449 ;; Registers used:
  3450 ;;		None
  3451 ;; Tracked objects:
  3452 ;;		On entry : 0/0
  3453 ;;		On exit  : 0/0
  3454 ;;		Unchanged: 0/0
  3455 ;; Data sizes:     COMMON   BANK0   BANK1   BANK3   BANK2
  3456 ;;      Params:         0       0       0       0       0
  3457 ;;      Locals:         0       0       0       0       0
  3458 ;;      Temps:          0       0       0       0       0
  3459 ;;      Totals:         0       0       0       0       0
  3460 ;;Total ram usage:        0 bytes
  3461 ;; Hardware stack levels used:    1
  3462 ;; This function calls:
  3463 ;;		Nothing
  3464 ;; This function is called by:
  3465 ;;		_main
  3466 ;; This function uses a non-reentrant model
  3467 ;;
  3468                           psect	text450
  3469                           	file	"../../Source File/PR9B.c"
  3470                           	line	169
  3471                           	global	__size_of_clearrow3
  3472  0007                     	__size_of_clearrow3	equ	__end_of_clearrow3-_clearrow3
  3473                           	
  3474  02B8                     _clearrow3:	
  3475                           	opt	stack 7
  3476                           ; Regs used in _clearrow3: []
  3477                           	line	170
  3478                           	
  3479  02B8                     l3136:	
  3480                           ;PR9B.c: 170: RE1=1;
  3481  02B8  1283               	bcf	status, 5	;RP0=0, select bank0
  3482  02B9  1303               	bcf	status, 6	;RP1=0, select bank0
  3483  02BA  1489               	bsf	(73/8),(73)&7
  3484                           	line	171
  3485                           ;PR9B.c: 171: RE0=1;
  3486  02BB  1409               	bsf	(72/8),(72)&7
  3487                           	line	172
  3488                           ;PR9B.c: 172: RA5=0;
  3489  02BC  1285               	bcf	(45/8),(45)&7
  3490                           	line	173
  3491                           ;PR9B.c: 173: RA4=1;
  3492  02BD  1605               	bsf	(44/8),(44)&7
  3493                           	line	174
  3494                           	
  3495  02BE                     l746:	
  3496  02BE  0008               	return
  3497                           	opt stack 0
  3498                           GLOBAL	__end_of_clearrow3
  3499  02BF                     	__end_of_clearrow3:
  3500 ;; =============== function _clearrow3 ends ============
  3501                           
  3502                           	signat	_clearrow3,88
  3503                           	global	_clearrow2
  3504                           psect	text451,local,class=CODE,delta=2
  3505                           global __ptext451
  3506  02B1                     __ptext451:
  3507                           
  3508 ;; *************** function _clearrow2 *****************
  3509 ;; Defined at:
  3510 ;;		line 161 in file "../../Source File/PR9B.c"
  3511 ;; Parameters:    Size  Location     Type
  3512 ;;		None
  3513 ;; Auto vars:     Size  Location     Type
  3514 ;;		None
  3515 ;; Return value:  Size  Location     Type
  3516 ;;		None               void
  3517 ;; Registers used:
  3518 ;;		None
  3519 ;; Tracked objects:
  3520 ;;		On entry : 0/0
  3521 ;;		On exit  : 0/0
  3522 ;;		Unchanged: 0/0
  3523 ;; Data sizes:     COMMON   BANK0   BANK1   BANK3   BANK2
  3524 ;;      Params:         0       0       0       0       0
  3525 ;;      Locals:         0       0       0       0       0
  3526 ;;      Temps:          0       0       0       0       0
  3527 ;;      Totals:         0       0       0       0       0
  3528 ;;Total ram usage:        0 bytes
  3529 ;; Hardware stack levels used:    1
  3530 ;; This function calls:
  3531 ;;		Nothing
  3532 ;; This function is called by:
  3533 ;;		_main
  3534 ;; This function uses a non-reentrant model
  3535 ;;
  3536                           psect	text451
  3537                           	file	"../../Source File/PR9B.c"
  3538                           	line	161
  3539                           	global	__size_of_clearrow2
  3540  0007                     	__size_of_clearrow2	equ	__end_of_clearrow2-_clearrow2
  3541                           	
  3542  02B1                     _clearrow2:	
  3543                           	opt	stack 7
  3544                           ; Regs used in _clearrow2: []
  3545                           	line	162
  3546                           	
  3547  02B1                     l3134:	
  3548                           ;PR9B.c: 162: RE1=1;
  3549  02B1  1283               	bcf	status, 5	;RP0=0, select bank0
  3550  02B2  1303               	bcf	status, 6	;RP1=0, select bank0
  3551  02B3  1489               	bsf	(73/8),(73)&7
  3552                           	line	163
  3553                           ;PR9B.c: 163: RE0=0;
  3554  02B4  1009               	bcf	(72/8),(72)&7
  3555                           	line	164
  3556                           ;PR9B.c: 164: RA5=1;
  3557  02B5  1685               	bsf	(45/8),(45)&7
  3558                           	line	165
  3559                           ;PR9B.c: 165: RA4=1;
  3560  02B6  1605               	bsf	(44/8),(44)&7
  3561                           	line	166
  3562                           	
  3563  02B7                     l743:	
  3564  02B7  0008               	return
  3565                           	opt stack 0
  3566                           GLOBAL	__end_of_clearrow2
  3567  02B8                     	__end_of_clearrow2:
  3568 ;; =============== function _clearrow2 ends ============
  3569                           
  3570                           	signat	_clearrow2,88
  3571                           	global	_clearrow1
  3572                           psect	text452,local,class=CODE,delta=2
  3573                           global __ptext452
  3574  02AA                     __ptext452:
  3575                           
  3576 ;; *************** function _clearrow1 *****************
  3577 ;; Defined at:
  3578 ;;		line 153 in file "../../Source File/PR9B.c"
  3579 ;; Parameters:    Size  Location     Type
  3580 ;;		None
  3581 ;; Auto vars:     Size  Location     Type
  3582 ;;		None
  3583 ;; Return value:  Size  Location     Type
  3584 ;;		None               void
  3585 ;; Registers used:
  3586 ;;		None
  3587 ;; Tracked objects:
  3588 ;;		On entry : 0/0
  3589 ;;		On exit  : 0/0
  3590 ;;		Unchanged: 0/0
  3591 ;; Data sizes:     COMMON   BANK0   BANK1   BANK3   BANK2
  3592 ;;      Params:         0       0       0       0       0
  3593 ;;      Locals:         0       0       0       0       0
  3594 ;;      Temps:          0       0       0       0       0
  3595 ;;      Totals:         0       0       0       0       0
  3596 ;;Total ram usage:        0 bytes
  3597 ;; Hardware stack levels used:    1
  3598 ;; This function calls:
  3599 ;;		Nothing
  3600 ;; This function is called by:
  3601 ;;		_main
  3602 ;; This function uses a non-reentrant model
  3603 ;;
  3604                           psect	text452
  3605                           	file	"../../Source File/PR9B.c"
  3606                           	line	153
  3607                           	global	__size_of_clearrow1
  3608  0007                     	__size_of_clearrow1	equ	__end_of_clearrow1-_clearrow1
  3609                           	
  3610  02AA                     _clearrow1:	
  3611                           	opt	stack 7
  3612                           ; Regs used in _clearrow1: []
  3613                           	line	154
  3614                           	
  3615  02AA                     l3132:	
  3616                           ;PR9B.c: 154: RE1=0;
  3617  02AA  1283               	bcf	status, 5	;RP0=0, select bank0
  3618  02AB  1303               	bcf	status, 6	;RP1=0, select bank0
  3619  02AC  1089               	bcf	(73/8),(73)&7
  3620                           	line	155
  3621                           ;PR9B.c: 155: RE0=1;
  3622  02AD  1409               	bsf	(72/8),(72)&7
  3623                           	line	156
  3624                           ;PR9B.c: 156: RA5=1;
  3625  02AE  1685               	bsf	(45/8),(45)&7
  3626                           	line	157
  3627                           ;PR9B.c: 157: RA4=1;
  3628  02AF  1605               	bsf	(44/8),(44)&7
  3629                           	line	158
  3630                           	
  3631  02B0                     l740:	
  3632  02B0  0008               	return
  3633                           	opt stack 0
  3634                           GLOBAL	__end_of_clearrow1
  3635  02B1                     	__end_of_clearrow1:
  3636 ;; =============== function _clearrow1 ends ============
  3637                           
  3638                           	signat	_clearrow1,88
  3639                           	global	_delay
  3640                           psect	text453,local,class=CODE,delta=2
  3641                           global __ptext453
  3642  03B4                     __ptext453:
  3643                           
  3644 ;; *************** function _delay *****************
  3645 ;; Defined at:
  3646 ;;		line 348 in file "../../Source File/PR9B.c"
  3647 ;; Parameters:    Size  Location     Type
  3648 ;;  data            4    0[COMMON] unsigned long 
  3649 ;; Auto vars:     Size  Location     Type
  3650 ;;		None
  3651 ;; Return value:  Size  Location     Type
  3652 ;;		None               void
  3653 ;; Registers used:
  3654 ;;		wreg
  3655 ;; Tracked objects:
  3656 ;;		On entry : 0/0
  3657 ;;		On exit  : 0/0
  3658 ;;		Unchanged: 0/0
  3659 ;; Data sizes:     COMMON   BANK0   BANK1   BANK3   BANK2
  3660 ;;      Params:         4       0       0       0       0
  3661 ;;      Locals:         0       0       0       0       0
  3662 ;;      Temps:          4       0       0       0       0
  3663 ;;      Totals:         8       0       0       0       0
  3664 ;;Total ram usage:        8 bytes
  3665 ;; Hardware stack levels used:    1
  3666 ;; This function calls:
  3667 ;;		Nothing
  3668 ;; This function is called by:
  3669 ;;		_main
  3670 ;;		_beep_once
  3671 ;;		_beep_twice
  3672 ;;		_send_config
  3673 ;;		_send_char
  3674 ;;		_e_pulse
  3675 ;;		_lcd_clr
  3676 ;; This function uses a non-reentrant model
  3677 ;;
  3678                           psect	text453
  3679                           	file	"../../Source File/PR9B.c"
  3680                           	line	348
  3681                           	global	__size_of_delay
  3682  0030                     	__size_of_delay	equ	__end_of_delay-_delay
  3683                           	
  3684  03B4                     _delay:	
  3685                           	opt	stack 6
  3686                           ; Regs used in _delay: [wreg]
  3687                           	line	349
  3688                           	
  3689  03B4                     l3126:	
  3690                           ;PR9B.c: 349: for( ;data>0;data-=1);
  3691  03B4  0873               	movf	(delay@data+3),w
  3692  03B5  0472               	iorwf	(delay@data+2),w
  3693  03B6  0471               	iorwf	(delay@data+1),w
  3694  03B7  0470               	iorwf	(delay@data),w
  3695  03B8  1D03               	skipz
  3696  03B9  2BBB               	goto	u2831
  3697  03BA  2BBC               	goto	u2830
  3698  03BB                     u2831:
  3699  03BB  2BBE               	goto	l3130
  3700  03BC                     u2830:
  3701  03BC  2BE3               	goto	l858
  3702                           	
  3703  03BD                     l3128:	
  3704  03BD  2BE3               	goto	l858
  3705                           	
  3706  03BE                     l856:	
  3707                           	
  3708  03BE                     l3130:	
  3709  03BE  3001               	movlw	01h
  3710  03BF  00F4               	movwf	((??_delay+0)+0)
  3711  03C0  3000               	movlw	0
  3712  03C1  00F5               	movwf	((??_delay+0)+0+1)
  3713  03C2  3000               	movlw	0
  3714  03C3  00F6               	movwf	((??_delay+0)+0+2)
  3715  03C4  3000               	movlw	0
  3716  03C5  00F7               	movwf	((??_delay+0)+0+3)
  3717  03C6  0874               	movf	0+(??_delay+0)+0,w
  3718  03C7  02F0               	subwf	(delay@data),f
  3719  03C8  0875               	movf	1+(??_delay+0)+0,w
  3720  03C9  1C03               	skipc
  3721  03CA  0F75               	incfsz	1+(??_delay+0)+0,w
  3722  03CB  2BCD               	goto	u2845
  3723  03CC  2BCE               	goto	u2846
  3724  03CD                     u2845:
  3725  03CD  02F1               	subwf	(delay@data+1),f
  3726  03CE                     u2846:
  3727  03CE  0876               	movf	2+(??_delay+0)+0,w
  3728  03CF  1C03               	skipc
  3729  03D0  0F76               	incfsz	2+(??_delay+0)+0,w
  3730  03D1  2BD3               	goto	u2847
  3731  03D2  2BD4               	goto	u2848
  3732  03D3                     u2847:
  3733  03D3  02F2               	subwf	(delay@data+2),f
  3734  03D4                     u2848:
  3735  03D4  0877               	movf	3+(??_delay+0)+0,w
  3736  03D5  1C03               	skipc
  3737  03D6  0F77               	incfsz	3+(??_delay+0)+0,w
  3738  03D7  2BD9               	goto	u2849
  3739  03D8  2BDA               	goto	u2840
  3740  03D9                     u2849:
  3741  03D9  02F3               	subwf	(delay@data+3),f
  3742  03DA                     u2840:
  3743                           
  3744  03DA  0873               	movf	(delay@data+3),w
  3745  03DB  0472               	iorwf	(delay@data+2),w
  3746  03DC  0471               	iorwf	(delay@data+1),w
  3747  03DD  0470               	iorwf	(delay@data),w
  3748  03DE  1D03               	skipz
  3749  03DF  2BE1               	goto	u2851
  3750  03E0  2BE2               	goto	u2850
  3751  03E1                     u2851:
  3752  03E1  2BBE               	goto	l3130
  3753  03E2                     u2850:
  3754  03E2  2BE3               	goto	l858
  3755                           	
  3756  03E3                     l857:	
  3757                           	line	350
  3758                           	
  3759  03E3                     l858:	
  3760  03E3  0008               	return
  3761                           	opt stack 0
  3762                           GLOBAL	__end_of_delay
  3763  03E4                     	__end_of_delay:
  3764 ;; =============== function _delay ends ============
  3765                           
  3766                           	signat	_delay,4216
  3767                           psect	text454,local,class=CODE,delta=2
  3768                           global __ptext454
  3769  0000                     __ptext454:
  3770                           	global	btemp
  3771  007E                     	btemp set 07Eh
  3772                           
  3773                           	DABS	1,126,2	;btemp
  3774                           	global	wtemp0
  3775  007E                     	wtemp0 set btemp


HI-TECH Software PICC Macro Assembler V9.82 build 9453 
Symbol Table                                                                                   Thu Jul 09 16:49:06 2015

                   pc 0002          _stalled_char 0026                    _RD 0C60                    _WR 0C61  
                  fsr 0004                   l800 0577                   l801 0593                   l810 05F2  
                 l730 07DD                   l811 05CA                   l731 07FA                   l740 02B0  
                 l820 0607                   l812 05CA                   l804 05C4                   l732 07F8  
                 l821 064F                   l813 05CF                   l805 059C                   l733 07F8  
                 l725 076C                   l822 064E                   l814 05D9                   l806 059C  
                 l830 0682                   l726 07FB                   l734 07F9                   l743 02B7  
                 l815 0650                   l823 0626                   l807 05A1                   l831 065A  
                 l735 07FC                   l727 07DE                   l760 044E                   l752 0448  
                 l824 0626                   l816 0620                   l808 05AB                   l840 0697  
                 l832 065A                   l736 07FD                   l728 07DC                   l761 0453  
                 l753 0420                   l809 0651                   l825 062B                   l817 05F8  
                 l841 070E                   l833 065F                   l737 07FD                   l729 07DC  
                 l746 02BE                   l770 04D2                   l762 045D                   l754 0420  
                 l826 0635                   l818 05F8                   l850 06E4                   l842 06DE  
                 l834 0669                   l763 04D4                   l771 04AA                   l755 0425  
                 l819 05FD                   l827 0651                   l835 070F                   l851 06E9  
                 l843 06B6                   l772 04AA                   l764 04A4                   l756 042F  
                 l780 04DE                   l852 06F3                   l844 06B6                   l836 06B0  
                 l749 02C5                   l861 02D9                   l757 04D5                   l773 04AF  
                 l765 047C                   l781 04E3                   l845 06BB                   l837 0688  
                 l853 070F                   l870 031F                   l774 04B9                   l766 047C  
                 l758 0476                   l790 0562                   l782 04ED                   l846 06C5  
                 l838 0688                   l767 0481                   l759 044E                   l775 04D5  
                 l783 0593                   l791 053A                   l847 070D                   l839 068D  
                 l856 03BE                   l864 0417                   l768 048B                   l792 053A  
                 l784 0534                   l848 070C                   l857 03E3                   l873 035D  
                 l881 02ED                   l769 04D3                   l793 053F                   l785 050C  
                 l849 06E4                   l858 03E3                   l794 0549                   l786 050C  
                 l778 0506                   l867 0306                   l795 0591                   l787 0511  
                 l779 04DE                   l876 032F                   l884 0372                   l796 0590  
                 l788 051B                   l877 033C                   l885 0361                   l789 0592  
                 l797 0568                   l878 033C                   l798 0568                   l887 0383  
                 l799 056D                   l888 0384                   l889 0384                   _GIE 005F  
                 _RA0 0028                   _RA1 0029                   _RA2 002A                   _RB1 0031  
                 _RA3 002B                   _RC0 0038                   _RB2 0032                   _RA4 002C  
                 _RC1 0039                   _RA5 002D                   _RC2 003A                   _RC3 003B  
                 _RE0 0048                   _RE1 0049                   fsr0 0004                   indf 0000  
     send_config@data 0078                  l3200 041F                  l3130 03BE                  l3210 044D  
                l3202 0425                  l3132 02AA                  l3140 02C6                  l3220 047B  
                l3212 0453                  l3204 042A                  l3300 05E5                  l3126 03B4  
                l3134 02B1                  l3142 02C9                  l3150 03F4                  l3230 04A9  
                l3222 0481                  l3214 0458                  l3206 043B                  l3310 0613  
                l3302 05ED                  l3128 03BD                  l3136 02B8                  l3144 02D6  
                l3152 0404                  l3160 034D                  l3232 04AF                  l3224 0486  
                l3216 0469                  l3208 0443                  l3240 04D6                  l3320 0641  
                l3312 061B                  l3304 05F7                  l3400 0753                  l3138 02BF  
                l3154 0414                  l3146 03E4                  l3162 02EF                  l3170 0308  
                l3234 04B4                  l3226 0497                  l3218 0471                  l3250 0501  
                l3242 04DD                  l3322 0649                  l3314 0625                  l3306 05FD  
                l3330 0664                  l3410 0771                  l3402 0759                  l3148 03E7  
                l3156 033D                  l3164 02F2                  l3172 030B                  l3180 0321  
                l3236 04C5                  l3228 049F                  l3260 052F                  l3252 050B  
                l3244 04E3                  l3316 062B                  l3308 0602                  l3340 0692  
                l3332 0675                  l3324 0652                  l3420 078A                  l3412 0776  
                l3404 075F                  l3158 0340                  l3166 02F4                  l3174 030D  
                l3182 0327                  l3190 0361                  l3238 04CD                  l3270 055D  
                l3262 0539                  l3254 0511                  l3246 04E8                  l3318 0630  
                l3350 06C0                  l3342 06A3                  l3334 067D                  l3326 0659  
                l3430 07A3                  l3422 078F                  l3414 077B                  l3406 0765  
                l3168 0301                  l3176 031A                  l3184 032F                  l3192 036D  
                l3280 058B                  l3272 0567                  l3264 053F                  l3256 0516  
                l3248 04F9                  l3360 06EE                  l3352 06D1                  l3344 06AB  
                l3336 0687                  l3328 065F                  l3440 07C1                  l3432 07A9  
                l3424 0794                  l3416 0780                  l3408 076C                  l3178 02DA  
                l3186 0334                  l3194 0372                  l3274 056D                  l3266 0544  
                l3258 0527                  l3290 05B7                  l3282 0594                  l3362 06FF  
                l3354 06D9                  l3346 06B5                  l3338 068D                  l3442 07CC  
                l3434 07AF                  l3450 07DE                  l3426 079A                  l3418 0785  
                l3370 0717                  l3196 0376                  l3188 035F                  l3276 0572  
                l3268 0555                  l3292 05BF                  l3284 059B                  l3364 0707  
                l3356 06E3                  l3348 06BB                  l3452 07E9                  l3444 07D2  
                l3436 07B5                  l3428 079B                  l3380 0720                  l3372 071A  
                l3198 0418                  l3278 0583                  l3294 05C9                  l3286 05A1  
                l3358 06E9                  l3454 07EF                  l3446 07D5                  l3438 07BB  
                l3390 072F                  l3382 0721                  l3374 071B                  l3366 0710  
                l3296 05CF                  l3288 05A6                  l3456 07F2                  l3448 07D6  
                l3392 0735                  l3384 0722                  l3376 071E                  l3368 0716  
                l3298 05D4                  l3394 073B                  l3386 0723                  l3378 071F  
                l3396 0741                  l3388 0729                  l3398 0746                  STR_1 001A  
                STR_2 0009                  STR_3 0027                  STR_4 0030                  u3000 04B4  
                u3001 04B3                  u3010 04DC                  u3011 04DB                  u3100 0566  
                u3020 04E2                  u3101 0565                  u3021 04E1                  u3110 056C  
                u3030 04E8                  u3111 056B                  u3031 04E7                  u3120 0572  
                u3040 050A                  u3200 05FC                  u3121 0571                  u3041 0509  
                u3201 05FB                  u3050 0510                  u3210 0602                  u3130 059A  
                u3051 050F                  u3211 0601                  u3131 0599                  u3060 0516  
                u3220 0624                  u3140 05A0                  u3300 0692                  u3061 0515  
                u3221 0623                  u3141 059F                  u3301 0691                  u3070 0538  
                u3230 062A                  u3150 05A6                  u3310 06B4                  u3071 0537  
                u3231 0629                  u3151 05A5                  u3311 06B3                  u3080 053E  
                u3240 0630                  u3160 05C8                  u3320 06BA                  u3400 07AF  
                u3081 053D                  u3241 062F                  u3161 05C7                  u3321 06B9  
                u3401 07AE                  u3090 0544                  u3170 05CE                  u3330 06C0  
                u3250 0658                  u3410 07B5                  u3091 0543                  u3171 05CD  
                u3331 06BF                  u3251 0657                  u3411 07B4                  u3180 05D4  
                u3340 06E2                  u3260 065E                  u3420 07BB                  u3181 05D3  
                u3341 06E1                  u3261 065D                  u3421 07BA                  u3190 05F6  
                u3350 06E8                  u3270 0664                  u3430 07C1                  u3191 05F5  
                u3351 06E7                  u3271 0663                  u3431 07C0                  u3360 06EE  
                u3280 0686                  u3361 06ED                  u3281 0685                  u3290 068C  
                u3370 079A                  u3291 068B                  u3371 0799                  u2900 0424  
                u3380 07A3                  u2901 0423                  u3381 07A2                  u2830 03BC  
                u2910 042A                  u3390 07A9                  u2831 03BB                  u2911 0429  
                u3391 07A8                  u2840 03DA                  u2920 044C                  u2921 044B  
                u2850 03E2                  u2930 0452                  u2851 03E1                  u2931 0451  
                u2860 0327                  u2940 0458                  u2845 03CD                  u2861 0326  
                u2941 0457                  u2846 03CE                  u2870 0376                  u2950 047A  
                u2847 03D3                  u2951 0479                  u2848 03D4                  u2880 0382  
                u2960 0480                  u2849 03D9                  u2881 0381                  u2961 047F  
                u2970 0486                  u2890 041E                  u2971 0485                  u2891 041D  
                u2980 04A8                  u2981 04A7                  u2990 04AE                  u2991 04AD  
                _WREN 0C62                  _main 0710                  btemp 007E          lcd_goto@data 007A  
                start 0000                 ?_main 0070                 _EEADR 010D                 _CARRY 0018  
               _PORTC 0007                 _PORTD 0008                 _TRISA 0085                 _TRISB 0086  
               _TRISC 0087                 _TRISD 0088                 _TRISE 0089       __end_of_e_pulse 035E  
     __end_of_lcd_clr 02EE                 _delay 03B4                 pclath 000A                 status 0003  
               wtemp0 007E          ?_scancolumn1 0070          ?_scancolumn2 0070          ?_scancolumn3 0070  
        ?_scancolumn4 0070          __end_of_main 0800                ??_main 007C                ?_delay 0070  
        ?_send_config 0070                _ADCON1 009F                _EEDATA 010C                _EECON1 018C  
              _EECON2 018D          ?_send_string 0070      __end_of_lcd_goto 033D             ??_e_pulse 0078  
           ??_lcd_clr 0079        _password_count 007C        __pcstackCOMMON 0070    __size_of_beep_once 0014  
        __pidataBANK0 02A4         __end_of_delay 03E4    __size_of_clearrow1 0007    __size_of_clearrow2 0007  
  __size_of_clearrow3 0007    __size_of_clearrow4 0007               ??_delay 0074            _beep_twice 03E4  
          __pbssBANK0 0020            __pmaintext 0710  __size_of_scancolumn1 00BE  __size_of_scancolumn2 00BE  
__size_of_scancolumn3 00BE  __size_of_scancolumn4 00BE    __size_of_send_char 0019     __end_of_beep_once 02DA  
           ?_lcd_goto 0070  __size_of_send_config 0019     __end_of_clearrow1 02B1     __end_of_clearrow2 02B8  
   __end_of_clearrow3 02BF     __end_of_clearrow4 02C6  __size_of_send_string 0027               _e_pulse 033D  
          _keyin_char 0020               _lcd_clr 02DA           ?_beep_twice 0070            ??_lcd_goto 0079  
end_of_initialization 03B0     __end_of_send_char 0320         send_char@data 0078   __size_of_beep_twice 0034  
 start_initialization 0385           __pdataBANK0 0026           __pbssCOMMON 007C     __size_of_lcd_goto 001D  
           _beep_once 02C6         ??_scancolumn1 007B         ??_scancolumn2 007B         ??_scancolumn3 007B  
       ??_scancolumn4 007B             _clearrow1 02AA             _clearrow2 02B1             _clearrow3 02B8  
           _clearrow4 02BF             __ptext440 0418             __ptext441 035E             __ptext450 02B8  
           __ptext442 0320             __ptext451 02B1             __ptext443 02DA             __ptext452 02AA  
           __ptext444 0307             __ptext453 03B4             __ptext445 02EE             __ptext437 0652  
           __ptext454 0000             __ptext446 033D             __ptext438 0594             __ptext447 03E4  
           __ptext439 04D6             __ptext448 02C6             __ptext449 02BF              ?_e_pulse 0070  
           __pstrings 0003              ?_lcd_clr 0070         ??_send_config 0078        __size_of_delay 0030  
        ??_beep_twice 0078             delay@data 0070         ??_send_string 0079            ?_beep_once 0070  
           _send_char 0307            ?_clearrow1 0070            ?_clearrow2 0070            ?_clearrow3 0070  
          ?_clearrow4 0070   __end_of_scancolumn1 04D6   __end_of_scancolumn2 0594   __end_of_scancolumn3 0652  
 __end_of_scancolumn4 0710    __end_of_beep_twice 0418           __stringbase 0008   __end_of_send_config 0307  
          ?_send_char 0070          send_string@i 007A          send_string@s 007B   __end_of_send_string 0385  
    __size_of_e_pulse 0021      __size_of_lcd_clr 0014              _lcd_goto 0320           ??_beep_once 0078  
       __size_of_main 00F0           _scancolumn1 0418           _scancolumn2 04D6           _scancolumn3 0594  
         _scancolumn4 0652           ??_clearrow1 0070           ??_clearrow2 0070           ??_clearrow3 0070  
         ??_clearrow4 0070           _send_config 02EE           _send_string 035E           ??_send_char 0078  
           stringcode 0003              stringdir 0003              stringtab 0003  
